(dp1
S'output'
p2
S"<type 'exceptions.AttributeError'> 'dict' object has no attribute 'append'"
p3
sS'layer'
p4
S'/home/aubreymoore/Devel/playpen/web2py/applications/pestlist/controllers/default.py'
p5
sS'code'
p6
S'# -*- coding: utf-8 -*-\n\n\ndef display_taxonomic_tree():\n    import json\n    # Important: root nodes must have \'parent\':\'#\'\n    m = None\n    #root_taxon = \'\'\n\n    form=FORM(\'Root taxon (leave blank to include all taxa):\',\n        INPUT(_name=\'root_taxon\'),\n        INPUT(_type=\'submit\'),\n    )\n\n    if form.accepts(request,session):\n\n        root_taxon = form.vars.root_taxon\n        print(root_taxon)\n\n        #level_dict = {\'kingdom\':1,\'phylum\':2,\'class\':3,\'order\':4,\'family\':5,\'genus\':6,\'species\':7}\n        if root_taxon == \'\':\n            rows = db(db.taxon2).select(orderby=db.taxon2.lineage)\n        else:\n            rows = db(db.taxon2.lineage.contains(root_taxon)).select(orderby=db.taxon2.lineage)\n            rows[0].parent_tid = \'#\'\n\n        mylist = []\n        for row in rows:\n            if row.trank in [\'genus\',\'species\']:\n                text = \'{} <i>{}</i>\'.format(row.trank, row.name)\n            else:\n                text = \'{} {}\'.format(row.trank, row.name)\n            mylist.append({\'id\':row.tid,\'parent\':row.parent_tid,\'text\':text})\n        m = json.dumps(mylist)\n\n    elif form.errors:\n        response.flash = \'form has errors\'\n    else:\n        response.flash = \'Please select a root taxon and press "SUBMIT QUERY".\'\n    return dict(form=form, m=m)\n\n\ndef populate_resolved_names_table():\n    db.resolved_names.truncate() # Delete all records in table\n    data = get_extracted_names()[\'resolved_names\']\n    for row in data:\n        if \'results\' in row.keys():\n            mydict = {\n                \'supplied_name_string\': row.get(\'supplied_name_string\', None),\n                \'classification_path\': row[\'results\'][0].get(\'classification_path\', None),\n                \'classification_path_ids\': row[\'results\'][0].get(\'classification_path_ids\', None),\n                \'classification_path_ranks\': row[\'results\'][0].get(\'classification_path_ranks\', None)\n            }\n            try:\n                db.resolved_names.insert(**mydict)\n                print(\'ADDED {}\'.format(row.get(\'supplied_name_string\', None)))\n                print(mydict)\n                print\n            except:\n                print(\'NOT ADDED BECAUSE OF DUP? {}\'.format(row.get(\'supplied_name_string\', None)))\n                print(mydict)\n                print\n                pass\n    return db(db.resolved_names.id>0).select()\n\n    # Now manually insert some more records\n\n    # To get data, go to http://resolver.globalnames.org/\n    # Search against the GBIF data source\n    # Copy data from JSON or XML\n    try: db.resolved_names.insert(\n            supplied_name_string = \'Musa\',\n            classification_path = \'Plantae|Tracheophyta|Liliopsida|Zingiberales|Musaceae|Musa\',\n            classification_path_ids = \'6|7707728|196|627|4686|2760990\',\n            classification_path_ranks = \'kingdom|phylum|class|order|family|genus\'\n        )\n    except: pass\n    try: db.resolved_names.insert(\n            supplied_name_string = \'Ficus\',\n            classification_path = \'Plantae|Tracheophyta|Magnoliopsida|Rosales|Moraceae|Ficus\',\n            classification_path_ids = \'6|7707728|220|691|6640|2984588\',\n            classification_path_ranks = \'kingdom|phylum|class|order|family|genus\'\n        )\n    except: pass\n    try: db.resolved_names.insert(\n        supplied_name_string = \'Artocarpus heterophyllus\',\n        classification_path = \'Plantae|Tracheophyta|Magnoliopsida|Rosales|Moraceae|Artocarpus|Artocarpus heterophyllus\',\n        classification_path_ids = \'6|7707728|220|691|6640|2984563|2984565\',\n        classification_path_ranks = \'kingdom|phylum|class|order|family|genus|species\'\n        )\n    except: pass\n    try: db.resolved_names.insert(\n        supplied_name_string = \'Rosa\',\n        classification_path = \'Plantae|Tracheophyta|Magnoliopsida|Rosales|Rosaceae|Rosa\',\n        classification_path_ids = \'6|7707728|220|691|5015|8395064\',\n        classification_path_ranks = \'kingdom|phylum|class|order|family|genus\'\n        )\n    except: pass\n    try: db.resolved_names.insert(\n        supplied_name_string = \'Colocasia esculenta\',\n        classification_path = \'Plantae|Tracheophyta|Liliopsida|Alismatales|Araceae|Colocasia|Colocasia esculenta\',\n        classification_path_ids = \'6|7707728|196|551|6979|5330758|5330776\',\n        classification_path_ranks = \'kingdom|phylum|class|order|family|genus|species\'\n        )\n    except: pass\n    # db.resolved_names.insert(\n    #     supplied_name_string = \'\',\n    #     classification_path = \'\',\n    #     classification_path_ids = \'\',\n    #     classification_path_ranks = \'\'\n    #     )\n\n    return\n\n\ndef check_name():\n    import requests\n    name = \'Nysius pulchellus\'\n    url = \'http://resolver.globalnames.org/name_resolvers.json\'\n    params = {\'names\': name, \'data_source_ids\': \'11\'}\n    r = requests.get(url, params)\n    mydict = r.json()\n    return mydict\n\n\ndef unknown_names():\n    s = \'<h1>Unknown Names</h1>\'\n    data = get_extracted_names()[\'resolved_names\']\n    for row in data:\n        if not row[\'is_known_name\']:\n            s += \'{} _{}_<br>\'.format(row[\'is_known_name\'], row[\'supplied_name_string\'])\n    return s\n\n\ndef annotate2():\n    import urllib2\n    # Download pestlist web page as a string.\n    f = urllib2.urlopen(\'https://aubreymoore.github.io/crop-pest-list/list.html\')\n    s = f.read().decode(\'utf-8\')\n    for row in db(db.resolved_names.id > 0).select():\n        supplied_name_string = row.supplied_name_string\n        taxon_id = row.classification_path_ids.split(\'|\')[-1]\n        taxon_rank = row.classification_path_ranks.split(\'|\')[-1]\n        # Is this a leaf node?\n        cp_ids = row.classification_path_ids\n        children_count = db(db.resolved_names.classification_path_ids.startswith(cp_ids)).count()\n        if children_count == 1: # This is a leaf node\n            s = s.replace(supplied_name_string,\n                    \'{} <a href="http://www.gbif.org/species/{}">{}</a>\'\n                        .format(supplied_name_string, taxon_id, taxon_id))\n    return s\n\n\ndef get_extracted_names():\n    \'\'\'\n    Returns the contents of the \'extracted_names_json\' field in the first\n    record of the \'extracted_names\' table.\n    \'\'\'\n    return db(db.extracted_names).select()[0][\'extracted_names_json\']\n\n\ndef parse_resolved_names2():\n    \'\'\'\n    Parses the JSON data stored in \'db.extracted_names.extracted_names_json\' and\n    inserts all taxa to a self-referencing table, \'db.taxon2\'. Fields in\n    this table are:\n\n        tid: taxon id; usually a GBIF taxon id\n        parent_tid: tid of the taxon\'s parent; parent of a root must be \'#\'\n        name: taxon name\n        trank: taxon rank (kingdom, phylum, class, order family, genus or species)\n        lineage: ancestors of the taxon; eg. lineage for Oryctes rhinoceros is:\n            Animalia|Arthropoda|Insecta|Coleoptera|Dynastidae|Oryctes|Oryctes rhinoceros\n\n    Dependancies:\n        get_extracted_names\n    \'\'\'\n    resolved_names_list = get_extracted_names()[\'resolved_names\']\n    for resolved_name in resolved_names_list:\n        results_list = resolved_name.get(\'results\', None)\n        if results_list:\n            result_dict = results_list[0]\n            #lineage = result_dict[\'classification_path\']\n            classification_path = result_dict[\'classification_path\'].split(\'|\')\n            classification_path_ids = result_dict[\'classification_path_ids\'].split(\'|\')\n            classification_path_ranks = result_dict[\'classification_path_ranks\'].split(\'|\')\n\n            print classification_path\n\n            assert classification_path_ranks[0] == \'kingdom\'\n            assert len(classification_path) == len(classification_path_ids)\n            assert len(classification_path_ids) == len(classification_path_ranks)\n\n            for i in range(len(classification_path)):\n                if i == 0:\n                    parent_tid = \'#\' # The hash symbol is used by jstree to signify a root node\n                else:\n                    parent_tid = classification_path_ids[i-1]\n                tid = classification_path_ids[i]\n                name = classification_path[i]\n                trank = classification_path_ranks[i]\n                lineage = \'|\'.join(classification_path[0:i+1])\n\n                try:\n                    print(\'trying to add tid={}, name={}, trank={}, lineage={}\'.format(tid, name, trank, lineage))\n                    db.taxon2.insert(tid=tid, parent_tid=parent_tid, name=name, trank=trank, lineage=lineage)\n                    print( \'{} added\'.format(name))\n                except:\n                    print(\'{} not added - already in DB?\'.format(name))\n                    pass\n    return\n\n#@auth.requires_login()\ndef show_taxon2():\n    grid = SQLFORM.grid(db.taxon2, maxtextlength=1000, paginate=1000)\n    return locals()\n\ndef find_names(doc_url):\n    \'\'\'\n    Uses the Global Names Resolver to extract scientific names from \'doc_url\'\n    which can point to an HTML or PDF document.\n    \'\'\'\n    import requests\n    import time\n\n    url = \'http://gnrd.globalnames.org/name_finder.json?\'\n    #params = {\'url\': \'https://aubreymoore.github.io/crop-pest-list/list.html\'}\n    params = {\'url\': doc_url,\n        \'data_source_ids\': \'11\',\n        \'best_match_only\': \'true\',\n        \'unique\': \'true\' }\n    r = requests.get(url, params)\n    mydict = r.json()\n    token_url = mydict[\'token_url\']\n    print(\'token_url: {}\'.format(token_url))\n\n    # Poll the token url once a second for 100 s to see if results have been returned.\n    i = 0\n    while i <= 100:\n        i += 1\n        time.sleep(1)\n        r = requests.get(token_url)\n        mydict = r.json()\n        status = mydict.get(\'status\',\'\')\n        queue_size = mydict.get(\'queue_size\',\'\')\n        print(\'{} status: {} queue_size: {}\'.format(i, status, queue_size))\n        if status != 303:\n            break\n    return(mydict)\n\n\ndef doit():\n    \'\'\'\n    Uses the find_names function to extract scientific names from\n    \'https://aubreymoore.github.io/crop-pest-list/list.html\' and stores the\n    returned JSON data in db.extracted_names.\n\n    This function runs only when the extracted_names table is empty.\n\n    Dependancies:\n        find_names\n    \'\'\'\n    if len(db(db.extracted_names).select())==0:\n        doc_url = \'https://aubreymoore.github.io/crop-pest-list/list.html\'\n        db.extracted_names.insert(extracted_names_json=find_names(doc_url))\n        return(\'Added record.\')\n    return(\'Did not add record\')\n\n\ndef index():\n    return dict(message=T(\'Welcome to pestlist!\'))\n\n\ndef populate_uno():\n    db.uno.truncate() # Delete all records in table\n    data = get_extracted_names()[\'resolved_names\']\n    for row in data[0]:\n        x = {}\n        x.append(row)\n    #\n    #     if \'results\' in row.keys():\n    #         mydict = {\n    #             \'supplied_name_string\': row.get(\'supplied_name_string\', None),\n    #             \'classification_path\': row[\'results\'][0].get(\'classification_path\', None),\n    #             \'classification_path_ids\': row[\'results\'][0].get(\'classification_path_ids\', None),\n    #             \'classification_path_ranks\': row[\'results\'][0].get(\'classification_path_ranks\', None)\n    #         }\n    #         try:\n    #             db.resolved_names.insert(**mydict)\n    #             print(\'ADDED {}\'.format(row.get(\'supplied_name_string\', None)))\n    #             print(mydict)\n    #             print\n    #         except:\n    #             print(\'NOT ADDED BECAUSE OF DUP? {}\'.format(row.get(\'supplied_name_string\', None)))\n    #             print(mydict)\n    #             print\n    #             pass\n    # return db(db.resolved_names.id>0).select()\n    return(x)\n\n\'\'\'\ndata_sources_number\t:\n1\nin_curated_sources\t:\nFalse\nis_known_name\t:\nTrue\nresults\t:\ncanonical_form\t:\nDacus cucurbitae\nclassification_path\t:\nAnimalia|Arthropoda|Insecta|Diptera|Tephritidae|Bactrocera|Bactrocera cucurbitae\nclassification_path_ids\t:\n1|54|216|811|3520|1626510|8070510\nclassification_path_ranks\t:\nkingdom|phylum|class|order|family|genus|species\ncurrent_name_string\t:\nBactrocera cucurbitae (Coquillett, 1899)\ncurrent_taxon_id\t:\n8070510\ndata_source_id\t:\n11\ndata_source_title\t:\nGBIF Backbone Taxonomy\nedit_distance\t:\n0\ngni_uuid\t:\n3a654723-6b50-561c-851f-074cdbbdac2d\nimported_at\t:\n2016-11-13T21:07:23Z\nmatch_type\t:\n2\nmatch_value\t:\nExact match by canonical form\nname_string\t:\nDacus cucurbitae Coquillett, 1899\nprescore\t:\n3|0|0\nscore\t:\n0.988\ntaxon_id\t:\n1627349\nsupplied_name_string\t:\nDacus cucurbitae\n\'\'\'\n\n# def user():\n#     """\n#     exposes:\n#     http://..../[app]/default/user/login\n#     http://..../[app]/default/user/logout\n#     http://..../[app]/default/user/register\n#     http://..../[app]/default/user/profile\n#     http://..../[app]/default/user/retrieve_password\n#     http://..../[app]/default/user/change_password\n#     http://..../[app]/default/user/bulk_register\n#     use @auth.requires_login()\n#         @auth.requires_membership(\'group name\')\n#         @auth.requires_permission(\'read\',\'table name\',record_id)\n#     to decorate functions that need access control\n#     also notice there is http://..../[app]/appadmin/manage/auth to allow administrator to manage users\n#     """\n#     return dict(form=auth())\n#\n#\n# @cache.action()\n# def download():\n#     """\n#     allows downloading of uploaded files\n#     http://..../[app]/default/download/[filename]\n#     """\n#     return response.download(request, db)\n#\n#\n# def call():\n#     """\n#     exposes services. for example:\n#     http://..../[app]/default/call/jsonrpc\n#     decorate with @services.jsonrpc the functions to expose\n#     supports xml, json, xmlrpc, jsonrpc, amfrpc, rss, csv\n#     """\n#     return service()\n\nresponse._vars=response._caller(populate_uno)\n'
p7
sS'snapshot'
p8
(dp9
S'exception'
p10
(dp11
S'__hash__'
p12
S"<method-wrapper '__hash__' of exceptions.AttributeError object>"
p13
sS'__setattr__'
p14
S"<method-wrapper '__setattr__' of exceptions.AttributeError object>"
p15
sS'__reduce_ex__'
p16
S'<built-in method __reduce_ex__ of exceptions.AttributeError object>'
p17
sS'__getslice__'
p18
S"<method-wrapper '__getslice__' of exceptions.AttributeError object>"
p19
sS'__getitem__'
p20
S"<method-wrapper '__getitem__' of exceptions.AttributeError object>"
p21
sS'__setstate__'
p22
S'<built-in method __setstate__ of exceptions.AttributeError object>'
p23
sS'args'
p24
S'("\'dict\' object has no attribute \'append\'",)'
p25
sS'__reduce__'
p26
S'<built-in method __reduce__ of exceptions.AttributeError object>'
p27
sS'__str__'
p28
S"<method-wrapper '__str__' of exceptions.AttributeError object>"
p29
sS'__format__'
p30
S'<built-in method __format__ of exceptions.AttributeError object>'
p31
sS'__getattribute__'
p32
S"<method-wrapper '__getattribute__' of exceptions.AttributeError object>"
p33
sS'__class__'
p34
S"<type 'exceptions.AttributeError'>"
p35
sS'__unicode__'
p36
S'<built-in method __unicode__ of exceptions.AttributeError object>'
p37
sS'__delattr__'
p38
S"<method-wrapper '__delattr__' of exceptions.AttributeError object>"
p39
sS'__subclasshook__'
p40
S'<built-in method __subclasshook__ of type object>'
p41
sS'__repr__'
p42
S"<method-wrapper '__repr__' of exceptions.AttributeError object>"
p43
sS'__dict__'
p44
S'{}'
p45
sS'__sizeof__'
p46
S'<built-in method __sizeof__ of exceptions.AttributeError object>'
p47
sS'__doc__'
p48
S"'Attribute not found.'"
p49
sS'__init__'
p50
S"<method-wrapper '__init__' of exceptions.AttributeError object>"
p51
sS'__new__'
p52
S'<built-in method __new__ of type object>'
p53
ssS'evalue'
p54
S"'dict' object has no attribute 'append'"
p55
sS'request'
p56
cgluon.html
XML_unpickle
p57
(S's\x14\\\x00\x00<div><table><tr><td style="font-weight:bold;vertical-align:top;">ajax</td><td style="vertical-align:top;">:</td><td><div>False</div></td></tr><tr><td style="font-weight:bold;vertical-align:top;">application</td><td style="vertical-align:top;">:</td><td><div>pestlist</div></td></tr><tr><td style="font-weight:bold;vertical-align:top;">args</td><td style="vertical-align:top;">:</td><td><div><table></table></div></td></tr><tr><td style="font-weight:bold;vertical-align:top;">cid</td><td style="vertical-align:top;">:</td><td><div>None</div></td></tr><tr><td style="font-weight:bold;vertical-align:top;">client</td><td style="vertical-align:top;">:</td><td><div>127.0.0.1</div></td></tr><tr><td style="font-weight:bold;vertical-align:top;">controller</td><td style="vertical-align:top;">:</td><td><div>default</div></td></tr><tr><td style="font-weight:bold;vertical-align:top;">cookies</td><td style="vertical-align:top;">:</td><td><div><table><tr><td style="font-weight:bold;vertical-align:top;">csrftoken</td><td style="vertical-align:top;">:</td><td><div>BdTm5f24ojwsp4yL4jX8IsiJa0T76YbSARW2xjlSwGWw4A5cHgusNPqKYJHYqgnC<table><tr><td style="font-weight:bold;vertical-align:top;">comment</td><td style="vertical-align:top;">:</td><td><div></div></td></tr><tr><td style="font-weight:bold;vertical-align:top;">domain</td><td style="vertical-align:top;">:</td><td><div></div></td></tr><tr><td style="font-weight:bold;vertical-align:top;">expires</td><td style="vertical-align:top;">:</td><td><div></div></td></tr><tr><td style="font-weight:bold;vertical-align:top;">httponly</td><td style="vertical-align:top;">:</td><td><div></div></td></tr><tr><td style="font-weight:bold;vertical-align:top;">max-age</td><td style="vertical-align:top;">:</td><td><div></div></td></tr><tr><td style="font-weight:bold;vertical-align:top;">path</td><td style="vertical-align:top;">:</td><td><div></div></td></tr><tr><td style="font-weight:bold;vertical-align:top;">secure</td><td style="vertical-align:top;">:</td><td><div></div></td></tr><tr><td style="font-weight:bold;vertical-align:top;">version</td><td style="vertical-align:top;">:</td><td><div></div></td></tr></table></div></td></tr><tr><td style="font-weight:bold;vertical-align:top;">session_id_admin</td><td style="vertical-align:top;">:</td><td><div>127.0.0.1-9fce4bae-b1c2-4324-a304-d2fd733c4f5e<table><tr><td style="font-weight:bold;vertical-align:top;">comment</td><td style="vertical-align:top;">:</td><td><div></div></td></tr><tr><td style="font-weight:bold;vertical-align:top;">domain</td><td style="vertical-align:top;">:</td><td><div></div></td></tr><tr><td style="font-weight:bold;vertical-align:top;">expires</td><td style="vertical-align:top;">:</td><td><div></div></td></tr><tr><td style="font-weight:bold;vertical-align:top;">httponly</td><td style="vertical-align:top;">:</td><td><div></div></td></tr><tr><td style="font-weight:bold;vertical-align:top;">max-age</td><td style="vertical-align:top;">:</td><td><div></div></td></tr><tr><td style="font-weight:bold;vertical-align:top;">path</td><td style="vertical-align:top;">:</td><td><div></div></td></tr><tr><td style="font-weight:bold;vertical-align:top;">secure</td><td style="vertical-align:top;">:</td><td><div></div></td></tr><tr><td style="font-weight:bold;vertical-align:top;">version</td><td style="vertical-align:top;">:</td><td><div></div></td></tr></table></div></td></tr><tr><td style="font-weight:bold;vertical-align:top;">session_id_pestlist</td><td style="vertical-align:top;">:</td><td><div>127.0.0.1-76c46f25-ccd3-4a89-b342-ea83818b215b<table><tr><td style="font-weight:bold;vertical-align:top;">comment</td><td style="vertical-align:top;">:</td><td><div></div></td></tr><tr><td style="font-weight:bold;vertical-align:top;">domain</td><td style="vertical-align:top;">:</td><td><div></div></td></tr><tr><td style="font-weight:bold;vertical-align:top;">expires</td><td style="vertical-align:top;">:</td><td><div></div></td></tr><tr><td style="font-weight:bold;vertical-align:top;">httponly</td><td style="vertical-align:top;">:</td><td><div></div></td></tr><tr><td style="font-weight:bold;vertical-align:top;">max-age</td><td style="vertical-align:top;">:</td><td><div></div></td></tr><tr><td style="font-weight:bold;vertical-align:top;">path</td><td style="vertical-align:top;">:</td><td><div></div></td></tr><tr><td style="font-weight:bold;vertical-align:top;">secure</td><td style="vertical-align:top;">:</td><td><div></div></td></tr><tr><td style="font-weight:bold;vertical-align:top;">version</td><td style="vertical-align:top;">:</td><td><div></div></td></tr></table></div></td></tr></table></div></td></tr><tr><td style="font-weight:bold;vertical-align:top;">env</td><td style="vertical-align:top;">:</td><td><div><table><tr><td style="font-weight:bold;vertical-align:top;">HTTP_ACCEPT</td><td style="vertical-align:top;">:</td><td><div>text/html,application/xhtml+xml,application/xml;q=0.9,*/*;q=0.8</div></td></tr><tr><td style="font-weight:bold;vertical-align:top;">HTTP_ACCEPT_ENCODING</td><td style="vertical-align:top;">:</td><td><div>gzip, deflate</div></td></tr><tr><td style="font-weight:bold;vertical-align:top;">HTTP_ACCEPT_LANGUAGE</td><td style="vertical-align:top;">:</td><td><div>en-US,en;q=0.5</div></td></tr><tr><td style="font-weight:bold;vertical-align:top;">HTTP_CACHE_CONTROL</td><td style="vertical-align:top;">:</td><td><div>max-age=0</div></td></tr><tr><td style="font-weight:bold;vertical-align:top;">HTTP_CONNECTION</td><td style="vertical-align:top;">:</td><td><div>keep-alive</div></td></tr><tr><td style="font-weight:bold;vertical-align:top;">HTTP_COOKIE</td><td style="vertical-align:top;">:</td><td><div>csrftoken=BdTm5f24ojwsp4yL4jX8IsiJa0T76YbSARW2xjlSwGWw4A5cHgusNPqKYJHYqgnC; session_id_pestlist=127.0.0.1-76c46f25-ccd3-4a89-b342-ea83818b215b; session_id_admin=127.0.0.1-9fce4bae-b1c2-4324-a304-d2fd733c4f5e</div></td></tr><tr><td style="font-weight:bold;vertical-align:top;">HTTP_HOST</td><td style="vertical-align:top;">:</td><td><div>127.0.0.1:8000</div></td></tr><tr><td style="font-weight:bold;vertical-align:top;">HTTP_UPGRADE_INSECURE_REQUESTS</td><td style="vertical-align:top;">:</td><td><div>1</div></td></tr><tr><td style="font-weight:bold;vertical-align:top;">HTTP_USER_AGENT</td><td style="vertical-align:top;">:</td><td><div>Mozilla/5.0 (X11; Ubuntu; Linux x86_64; rv:52.0) Gecko/20100101 Firefox/52.0</div></td></tr><tr><td style="font-weight:bold;vertical-align:top;">PATH_INFO</td><td style="vertical-align:top;">:</td><td><div>/pestlist/default/populate_uno</div></td></tr><tr><td style="font-weight:bold;vertical-align:top;">QUERY_STRING</td><td style="vertical-align:top;">:</td><td><div></div></td></tr><tr><td style="font-weight:bold;vertical-align:top;">REMOTE_ADDR</td><td style="vertical-align:top;">:</td><td><div>127.0.0.1</div></td></tr><tr><td style="font-weight:bold;vertical-align:top;">REMOTE_PORT</td><td style="vertical-align:top;">:</td><td><div>52354</div></td></tr><tr><td style="font-weight:bold;vertical-align:top;">REQUEST_METHOD</td><td style="vertical-align:top;">:</td><td><div>GET</div></td></tr><tr><td style="font-weight:bold;vertical-align:top;">SCRIPT_NAME</td><td style="vertical-align:top;">:</td><td><div></div></td></tr><tr><td style="font-weight:bold;vertical-align:top;">SERVER_NAME</td><td style="vertical-align:top;">:</td><td><div>aubreymoore-Aspire-7750Z</div></td></tr><tr><td style="font-weight:bold;vertical-align:top;">SERVER_PORT</td><td style="vertical-align:top;">:</td><td><div>8000</div></td></tr><tr><td style="font-weight:bold;vertical-align:top;">SERVER_PROTOCOL</td><td style="vertical-align:top;">:</td><td><div>HTTP/1.1</div></td></tr><tr><td style="font-weight:bold;vertical-align:top;">SERVER_SOFTWARE</td><td style="vertical-align:top;">:</td><td><div>Rocket 1.2.6</div></td></tr><tr><td style="font-weight:bold;vertical-align:top;">app_folders</td><td style="vertical-align:top;">:</td><td><div>set([&#x27;/home/aubreymoore/Devel/playpen/web2py/applications/pestlist/&#x27;, &#x27;/home/aubreymoore/Devel/playpen/web2py/applications/welcome/&#x27;, &#x27;/home/aubreymoore/Devel/playpen/web2py/applications/admin/&#x27;])</div></td></tr><tr><td style="font-weight:bold;vertical-align:top;">applications_parent</td><td style="vertical-align:top;">:</td><td><div>/home/aubreymoore/Devel/playpen/web2py</div></td></tr><tr><td style="font-weight:bold;vertical-align:top;">cmd_args</td><td style="vertical-align:top;">:</td><td><div><table></table></div></td></tr><tr><td style="font-weight:bold;vertical-align:top;">cmd_options</td><td style="vertical-align:top;">:</td><td><div>&lt;Values at 0x7f0b7a54e2d8: {&#x27;verbose&#x27;: False, &#x27;ip&#x27;: &#x27;127.0.0.1&#x27;, &#x27;debuglevel&#x27;: 30, &#x27;with_scheduler&#x27;: False, &#x27;shutdown_timeout&#x27;: 5, &#x27;taskbar&#x27;: False, &#x27;with_coverage&#x27;: False, &#x27;pid_filename&#x27;: &#x27;httpserver.pid&#x27;, &#x27;maxthreads&#x27;: None, &#x27;softcron&#x27;: False, &#x27;server_name&#x27;: &#x27;aubreymoore-Aspire-7750Z&#x27;, &#x27;bpython&#x27;: False, &#x27;nogui&#x27;: False, &#x27;port&#x27;: 8000, &#x27;print_errors&#x27;: False, &#x27;extcron&#x27;: False, &#x27;runcron&#x27;: False, &#x27;run_system_tests&#x27;: False, &#x27;test&#x27;: None, &#x27;folder&#x27;: &#x27;/home/aubreymoore/Devel/playpen/web2py&#x27;, &#x27;config&#x27;: &#x27;&#x27;, &#x27;minthreads&#x27;: None, &#x27;shell&#x27;: None, &#x27;run&#x27;: &#x27;&#x27;, &#x27;log_filename&#x27;: &#x27;httpserver.log&#x27;, &#x27;profiler_dir&#x27;: None, &#x27;args&#x27;: [&#x27;&#x27;], &#x27;socket_timeout&#x27;: 5, &#x27;ssl_ca_certificate&#x27;: None, &#x27;scheduler&#x27;: None, &#x27;interfaces&#x27;: None, &#x27;ssl_private_key&#x27;: &#x27;&#x27;, &#x27;gae&#x27;: None, &#x27;password&#x27;: &#x27;******&#x27;, &#x27;request_queue_size&#x27;: 5, &#x27;ssl_certificate&#x27;: &#x27;&#x27;, &#x27;cronjob&#x27;: False, &#x27;numthreads&#x27;: None, &#x27;quiet&#x27;: False, &#x27;import_models&#x27;: False, &#x27;timeout&#x27;: 10, &#x27;plain&#x27;: False, &#x27;nobanner&#x27;: False}&gt;</div></td></tr><tr><td style="font-weight:bold;vertical-align:top;">db_sessions</td><td style="vertical-align:top;">:</td><td><div>set([])</div></td></tr><tr><td style="font-weight:bold;vertical-align:top;">debugging</td><td style="vertical-align:top;">:</td><td><div>True</div></td></tr><tr><td style="font-weight:bold;vertical-align:top;">gluon_parent</td><td style="vertical-align:top;">:</td><td><div>/home/aubreymoore/Devel/playpen/web2py</div></td></tr><tr><td style="font-weight:bold;vertical-align:top;">http_accept</td><td style="vertical-align:top;">:</td><td><div>text/html,application/xhtml+xml,application/xml;q=0.9,*/*;q=0.8</div></td></tr><tr><td style="font-weight:bold;vertical-align:top;">http_accept_encoding</td><td style="vertical-align:top;">:</td><td><div>gzip, deflate</div></td></tr><tr><td style="font-weight:bold;vertical-align:top;">http_accept_language</td><td style="vertical-align:top;">:</td><td><div>en-US,en;q=0.5</div></td></tr><tr><td style="font-weight:bold;vertical-align:top;">http_cache_control</td><td style="vertical-align:top;">:</td><td><div>max-age=0</div></td></tr><tr><td style="font-weight:bold;vertical-align:top;">http_connection</td><td style="vertical-align:top;">:</td><td><div>keep-alive</div></td></tr><tr><td style="font-weight:bold;vertical-align:top;">http_cookie</td><td style="vertical-align:top;">:</td><td><div>csrftoken=BdTm5f24ojwsp4yL4jX8IsiJa0T76YbSARW2xjlSwGWw4A5cHgusNPqKYJHYqgnC; session_id_pestlist=127.0.0.1-76c46f25-ccd3-4a89-b342-ea83818b215b; session_id_admin=127.0.0.1-9fce4bae-b1c2-4324-a304-d2fd733c4f5e</div></td></tr><tr><td style="font-weight:bold;vertical-align:top;">http_host</td><td style="vertical-align:top;">:</td><td><div>127.0.0.1:8000</div></td></tr><tr><td style="font-weight:bold;vertical-align:top;">http_upgrade_insecure_requests</td><td style="vertical-align:top;">:</td><td><div>1</div></td></tr><tr><td style="font-weight:bold;vertical-align:top;">http_user_agent</td><td style="vertical-align:top;">:</td><td><div>Mozilla/5.0 (X11; Ubuntu; Linux x86_64; rv:52.0) Gecko/20100101 Firefox/52.0</div></td></tr><tr><td style="font-weight:bold;vertical-align:top;">is_jython</td><td style="vertical-align:top;">:</td><td><div>False</div></td></tr><tr><td style="font-weight:bold;vertical-align:top;">is_pypy</td><td style="vertical-align:top;">:</td><td><div>False</div></td></tr><tr><td style="font-weight:bold;vertical-align:top;">is_source</td><td style="vertical-align:top;">:</td><td><div>True</div></td></tr><tr><td style="font-weight:bold;vertical-align:top;">local_hosts</td><td style="vertical-align:top;">:</td><td><div><table><tr><td><div>::1</div></td></tr><tr><td><div>127.0.1.1</div></td></tr><tr><td><div>::ffff:127.0.0.1</div></td></tr><tr><td><div>127.0.0.1</div></td></tr><tr><td><div>aubreymoore-Aspire-7750Z</div></td></tr></table></div></td></tr><tr><td style="font-weight:bold;vertical-align:top;">path_info</td><td style="vertical-align:top;">:</td><td><div>/pestlist/default/populate_uno</div></td></tr><tr><td style="font-weight:bold;vertical-align:top;">query_string</td><td style="vertical-align:top;">:</td><td><div></div></td></tr><tr><td style="font-weight:bold;vertical-align:top;">remote_addr</td><td style="vertical-align:top;">:</td><td><div>127.0.0.1</div></td></tr><tr><td style="font-weight:bold;vertical-align:top;">remote_port</td><td style="vertical-align:top;">:</td><td><div>52354</div></td></tr><tr><td style="font-weight:bold;vertical-align:top;">request_method</td><td style="vertical-align:top;">:</td><td><div>GET</div></td></tr><tr><td style="font-weight:bold;vertical-align:top;">request_uri</td><td style="vertical-align:top;">:</td><td><div>/pestlist/default/populate_uno</div></td></tr><tr><td style="font-weight:bold;vertical-align:top;">script_name</td><td style="vertical-align:top;">:</td><td><div></div></td></tr><tr><td style="font-weight:bold;vertical-align:top;">server_name</td><td style="vertical-align:top;">:</td><td><div>aubreymoore-Aspire-7750Z</div></td></tr><tr><td style="font-weight:bold;vertical-align:top;">server_port</td><td style="vertical-align:top;">:</td><td><div>8000</div></td></tr><tr><td style="font-weight:bold;vertical-align:top;">server_protocol</td><td style="vertical-align:top;">:</td><td><div>HTTP/1.1</div></td></tr><tr><td style="font-weight:bold;vertical-align:top;">server_software</td><td style="vertical-align:top;">:</td><td><div>Rocket 1.2.6</div></td></tr><tr><td style="font-weight:bold;vertical-align:top;">web2py_path</td><td style="vertical-align:top;">:</td><td><div>/home/aubreymoore/Devel/playpen/web2py</div></td></tr><tr><td style="font-weight:bold;vertical-align:top;">web2py_version</td><td style="vertical-align:top;">:</td><td><div>2.14.6-stable+timestamp.2016.05.10.00.21.47</div></td></tr><tr><td style="font-weight:bold;vertical-align:top;">wsgi.errors</td><td style="vertical-align:top;">:</td><td><div>&lt;open file &#x27;&lt;stderr&gt;&#x27;, mode &#x27;w&#x27; at 0x7f0b82bee1e0&gt;</div></td></tr><tr><td style="font-weight:bold;vertical-align:top;">wsgi.file_wrapper</td><td style="vertical-align:top;">:</td><td><div>&lt;class wsgiref.util.FileWrapper at 0x7f0b7a578bb0&gt;</div></td></tr><tr><td style="font-weight:bold;vertical-align:top;">wsgi.input</td><td style="vertical-align:top;">:</td><td><div>&lt;socket._fileobject object at 0x7f0b3380e450&gt;</div></td></tr><tr><td style="font-weight:bold;vertical-align:top;">wsgi.multiprocess</td><td style="vertical-align:top;">:</td><td><div>False</div></td></tr><tr><td style="font-weight:bold;vertical-align:top;">wsgi.multithread</td><td style="vertical-align:top;">:</td><td><div>True</div></td></tr><tr><td style="font-weight:bold;vertical-align:top;">wsgi.run_once</td><td style="vertical-align:top;">:</td><td><div>False</div></td></tr><tr><td style="font-weight:bold;vertical-align:top;">wsgi.url_scheme</td><td style="vertical-align:top;">:</td><td><div>http</div></td></tr><tr><td style="font-weight:bold;vertical-align:top;">wsgi.version</td><td style="vertical-align:top;">:</td><td><div><table><tr><td><div>1</div></td></tr><tr><td><div>0</div></td></tr></table></div></td></tr><tr><td style="font-weight:bold;vertical-align:top;">wsgi_errors</td><td style="vertical-align:top;">:</td><td><div>&lt;open file &#x27;&lt;stderr&gt;&#x27;, mode &#x27;w&#x27; at 0x7f0b82bee1e0&gt;</div></td></tr><tr><td style="font-weight:bold;vertical-align:top;">wsgi_file_wrapper</td><td style="vertical-align:top;">:</td><td><div>&lt;class wsgiref.util.FileWrapper at 0x7f0b7a578bb0&gt;</div></td></tr><tr><td style="font-weight:bold;vertical-align:top;">wsgi_input</td><td style="vertical-align:top;">:</td><td><div>&lt;socket._fileobject object at 0x7f0b3380e450&gt;</div></td></tr><tr><td style="font-weight:bold;vertical-align:top;">wsgi_multiprocess</td><td style="vertical-align:top;">:</td><td><div>False</div></td></tr><tr><td style="font-weight:bold;vertical-align:top;">wsgi_multithread</td><td style="vertical-align:top;">:</td><td><div>True</div></td></tr><tr><td style="font-weight:bold;vertical-align:top;">wsgi_run_once</td><td style="vertical-align:top;">:</td><td><div>False</div></td></tr><tr><td style="font-weight:bold;vertical-align:top;">wsgi_url_scheme</td><td style="vertical-align:top;">:</td><td><div>http</div></td></tr><tr><td style="font-weight:bold;vertical-align:top;">wsgi_version</td><td style="vertical-align:top;">:</td><td><div><table><tr><td><div>1</div></td></tr><tr><td><div>0</div></td></tr></table></div></td></tr></table></div></td></tr><tr><td style="font-weight:bold;vertical-align:top;">extension</td><td style="vertical-align:top;">:</td><td><div>html</div></td></tr><tr><td style="font-weight:bold;vertical-align:top;">folder</td><td style="vertical-align:top;">:</td><td><div>/home/aubreymoore/Devel/playpen/web2py/applications/pestlist/</div></td></tr><tr><td style="font-weight:bold;vertical-align:top;">function</td><td style="vertical-align:top;">:</td><td><div>populate_uno</div></td></tr><tr><td style="font-weight:bold;vertical-align:top;">global_settings</td><td style="vertical-align:top;">:</td><td><div><table><tr><td style="font-weight:bold;vertical-align:top;">app_folders</td><td style="vertical-align:top;">:</td><td><div>set([&#x27;/home/aubreymoore/Devel/playpen/web2py/applications/pestlist/&#x27;, &#x27;/home/aubreymoore/Devel/playpen/web2py/applications/welcome/&#x27;, &#x27;/home/aubreymoore/Devel/playpen/web2py/applications/admin/&#x27;])</div></td></tr><tr><td style="font-weight:bold;vertical-align:top;">applications_parent</td><td style="vertical-align:top;">:</td><td><div>/home/aubreymoore/Devel/playpen/web2py</div></td></tr><tr><td style="font-weight:bold;vertical-align:top;">cmd_args</td><td style="vertical-align:top;">:</td><td><div><table></table></div></td></tr><tr><td style="font-weight:bold;vertical-align:top;">cmd_options</td><td style="vertical-align:top;">:</td><td><div>&lt;Values at 0x7f0b7a54e2d8: {&#x27;verbose&#x27;: False, &#x27;ip&#x27;: &#x27;127.0.0.1&#x27;, &#x27;debuglevel&#x27;: 30, &#x27;with_scheduler&#x27;: False, &#x27;shutdown_timeout&#x27;: 5, &#x27;taskbar&#x27;: False, &#x27;with_coverage&#x27;: False, &#x27;pid_filename&#x27;: &#x27;httpserver.pid&#x27;, &#x27;maxthreads&#x27;: None, &#x27;softcron&#x27;: False, &#x27;server_name&#x27;: &#x27;aubreymoore-Aspire-7750Z&#x27;, &#x27;bpython&#x27;: False, &#x27;nogui&#x27;: False, &#x27;port&#x27;: 8000, &#x27;print_errors&#x27;: False, &#x27;extcron&#x27;: False, &#x27;runcron&#x27;: False, &#x27;run_system_tests&#x27;: False, &#x27;test&#x27;: None, &#x27;folder&#x27;: &#x27;/home/aubreymoore/Devel/playpen/web2py&#x27;, &#x27;config&#x27;: &#x27;&#x27;, &#x27;minthreads&#x27;: None, &#x27;shell&#x27;: None, &#x27;run&#x27;: &#x27;&#x27;, &#x27;log_filename&#x27;: &#x27;httpserver.log&#x27;, &#x27;profiler_dir&#x27;: None, &#x27;args&#x27;: [&#x27;&#x27;], &#x27;socket_timeout&#x27;: 5, &#x27;ssl_ca_certificate&#x27;: None, &#x27;scheduler&#x27;: None, &#x27;interfaces&#x27;: None, &#x27;ssl_private_key&#x27;: &#x27;&#x27;, &#x27;gae&#x27;: None, &#x27;password&#x27;: &#x27;******&#x27;, &#x27;request_queue_size&#x27;: 5, &#x27;ssl_certificate&#x27;: &#x27;&#x27;, &#x27;cronjob&#x27;: False, &#x27;numthreads&#x27;: None, &#x27;quiet&#x27;: False, &#x27;import_models&#x27;: False, &#x27;timeout&#x27;: 10, &#x27;plain&#x27;: False, &#x27;nobanner&#x27;: False}&gt;</div></td></tr><tr><td style="font-weight:bold;vertical-align:top;">db_sessions</td><td style="vertical-align:top;">:</td><td><div>set([])</div></td></tr><tr><td style="font-weight:bold;vertical-align:top;">debugging</td><td style="vertical-align:top;">:</td><td><div>True</div></td></tr><tr><td style="font-weight:bold;vertical-align:top;">gluon_parent</td><td style="vertical-align:top;">:</td><td><div>/home/aubreymoore/Devel/playpen/web2py</div></td></tr><tr><td style="font-weight:bold;vertical-align:top;">is_jython</td><td style="vertical-align:top;">:</td><td><div>False</div></td></tr><tr><td style="font-weight:bold;vertical-align:top;">is_pypy</td><td style="vertical-align:top;">:</td><td><div>False</div></td></tr><tr><td style="font-weight:bold;vertical-align:top;">is_source</td><td style="vertical-align:top;">:</td><td><div>True</div></td></tr><tr><td style="font-weight:bold;vertical-align:top;">local_hosts</td><td style="vertical-align:top;">:</td><td><div><table><tr><td><div>::1</div></td></tr><tr><td><div>127.0.1.1</div></td></tr><tr><td><div>::ffff:127.0.0.1</div></td></tr><tr><td><div>127.0.0.1</div></td></tr><tr><td><div>aubreymoore-Aspire-7750Z</div></td></tr></table></div></td></tr><tr><td style="font-weight:bold;vertical-align:top;">web2py_version</td><td style="vertical-align:top;">:</td><td><div>2.14.6-stable+timestamp.2016.05.10.00.21.47</div></td></tr></table></div></td></tr><tr><td style="font-weight:bold;vertical-align:top;">is_https</td><td style="vertical-align:top;">:</td><td><div>False</div></td></tr><tr><td style="font-weight:bold;vertical-align:top;">is_local</td><td style="vertical-align:top;">:</td><td><div>True</div></td></tr><tr><td style="font-weight:bold;vertical-align:top;">is_restful</td><td style="vertical-align:top;">:</td><td><div>False</div></td></tr><tr><td style="font-weight:bold;vertical-align:top;">is_scheduler</td><td style="vertical-align:top;">:</td><td><div>False</div></td></tr><tr><td style="font-weight:bold;vertical-align:top;">is_shell</td><td style="vertical-align:top;">:</td><td><div>False</div></td></tr><tr><td style="font-weight:bold;vertical-align:top;">now</td><td style="vertical-align:top;">:</td><td><div>datetime.datetime(2017, 3, 11, 20, 59, 53, 147401)</div></td></tr><tr><td style="font-weight:bold;vertical-align:top;">raw_args</td><td style="vertical-align:top;">:</td><td><div></div></td></tr><tr><td style="font-weight:bold;vertical-align:top;">raw_extension</td><td style="vertical-align:top;">:</td><td><div>None</div></td></tr><tr><td style="font-weight:bold;vertical-align:top;">url</td><td style="vertical-align:top;">:</td><td><div>/pestlist/default/populate_uno</div></td></tr><tr><td style="font-weight:bold;vertical-align:top;">utcnow</td><td style="vertical-align:top;">:</td><td><div>datetime.datetime(2017, 3, 11, 10, 59, 53, 147432)</div></td></tr><tr><td style="font-weight:bold;vertical-align:top;">wsgi</td><td style="vertical-align:top;">:</td><td><div>&lt;gluon.main.LazyWSGI object at 0x7f0b34f08850&gt;</div></td></tr></table></div>'
tRp58
sS'frames'
p59
(lp60
(dp61
S'file'
p62
S'/home/aubreymoore/Devel/playpen/web2py/gluon/restricted.py'
p63
sS'dump'
p64
(dp65
S'environment'
p66
S"{'A': <class 'gluon.html.A'>, 'ANY_OF': <class 'gluon.validators.ANY_OF'>, 'ASSIGNJS': <function ASSIGNJS>, 'AppConfig': <function AppConfig>, 'Auth': <class 'gluon.tools.Auth'>, 'B': <class 'gluon.html.B'>, 'BEAUTIFY': <class 'gluon.html.BEAUTIFY'>, 'BODY': <class 'gluon.html.BODY'>, 'BR': <class 'gluon.html.BR'>, 'BUTTON': <class 'gluon.html.BUTTON'>, ...}"
p67
sS'ccode'
p68
S'<code object <module> at 0x7f0b782d7630, file "/...cations/pestlist/controllers/default.py", line 4>'
p69
ssS'lnum'
p70
I227
sS'lines'
p71
(dp72
I224
S'            ccode = code'
p73
sI225
S'        else:'
p74
sI226
S'            ccode = compile2(code, layer)'
p75
sI227
S'        exec ccode in environment'
p76
sI228
S'    except HTTP:'
p77
sI229
S'        raise'
p78
sI230
S'    except RestrictedError:'
p79
sI231
S'        # do not encapsulate (obfuscate) the original RestrictedError'
p80
sI222
S'    try:'
p81
sI223
S'        if isinstance(code, types.CodeType):'
p82
ssS'call'
p83
S"(code='# -*- coding: utf-8 -*-\\n\\n\\ndef display_taxonomic_...)\\n\\nresponse._vars=response._caller(populate_uno)\\n', environment={'A': <class 'gluon.html.A'>, 'ANY_OF': <class 'gluon.validators.ANY_OF'>, 'ASSIGNJS': <function ASSIGNJS>, 'AppConfig': <function AppConfig>, 'Auth': <class 'gluon.tools.Auth'>, 'B': <class 'gluon.html.B'>, 'BEAUTIFY': <class 'gluon.html.BEAUTIFY'>, 'BODY': <class 'gluon.html.BODY'>, 'BR': <class 'gluon.html.BR'>, 'BUTTON': <class 'gluon.html.BUTTON'>, ...}, layer='/home/aubreymoore/Devel/playpen/web2py/applications/pestlist/controllers/default.py')"
p84
sS'func'
p85
S'restricted'
p86
sa(dp87
g62
S'/home/aubreymoore/Devel/playpen/web2py/applications/pestlist/controllers/default.py'
p88
sg64
(dp89
sg70
I384
sg71
(dp90
I373
S'#'
sI374
S'#'
sI375
S'# def call():'
p91
sI376
S'#     """'
p92
sI377
S'#     exposes services. for example:'
p93
sI378
S'#     http://..../[app]/default/call/jsonrpc'
p94
sI379
S'#     decorate with @services.jsonrpc the functions to expose'
p95
sI380
S'#     supports xml, json, xmlrpc, jsonrpc, amfrpc, rss, csv'
p96
sI381
S'#     """'
p97
sI382
S'#     return service()'
p98
ssg83
S'()'
p99
sg85
S'<module>'
p100
sa(dp101
g62
S'/home/aubreymoore/Devel/playpen/web2py/gluon/globals.py'
p102
sg64
(dp103
S'self'
p104
S'undefined'
p105
sS'f'
S'<function populate_uno>'
p106
ssg70
I417
sg71
(dp107
I416
S'        self._vars = None'
p108
sI417
S'        self._caller = lambda f: f()'
p109
sI418
S'        self._view_environment = None'
p110
sI419
S'        self._custom_commit = None'
p111
sI420
S'        self._custom_rollback = None'
p112
sI421
S"        self.generic_patterns = ['*']"
p113
sI412
S"        self.flash = ''            # used by the default view layout"
p114
sI413
S'        self.meta = Storage()      # used by web2py_ajax.html'
p115
sI414
S'        self.menu = []             # used by the default view layout'
p116
sI415
S'        self.files = []            # used by web2py_ajax.html'
p117
ssg83
S'(f=<function populate_uno>)'
p118
sg85
S'<lambda>'
p119
sa(dp120
g62
S'/home/aubreymoore/Devel/playpen/web2py/applications/pestlist/controllers/default.py'
p121
sg64
(dp122
S'x'
g45
sS'x.append'
p123
g105
sS'row'
p124
S"u'supplied_name_string'"
p125
ssg70
I279
sg71
(dp126
I274
S'def populate_uno():'
p127
sI275
S'    db.uno.truncate() # Delete all records in table'
p128
sI276
S"    data = get_extracted_names()['resolved_names']"
p129
sI277
S'    for row in data[0]:'
p130
sI278
S'        x = {}'
p131
sI279
S'        x.append(row)'
p132
sI280
S'    #'
p133
sI281
S"    #     if 'results' in row.keys():"
p134
sI282
S'    #         mydict = {'
p135
sI283
S"    #             'supplied_name_string': row.get('supplied_name_string', None),"
p136
ssg83
S'()'
p137
sg85
S'populate_uno'
p138
sasS'pyver'
p139
S'Python 2.7.13: /home/aubreymoore/anaconda3/envs/playpen/bin/python (prefix: /home/aubreymoore/anaconda3/envs/playpen)'
p140
sS'session'
p141
g57
(S's@\x01\x00\x00<div><table><tr><td style="font-weight:bold;vertical-align:top;">last_orderby</td><td style="vertical-align:top;">:</td><td><div>None</div></td></tr><tr><td style="font-weight:bold;vertical-align:top;">last_query</td><td style="vertical-align:top;">:</td><td><div>db.extracted_names.id&gt;0</div></td></tr></table></div>'
tRp142
sS'etype'
p143
S"<type 'exceptions.AttributeError'>"
p144
sS'date'
p145
S'Sat Mar 11 20:59:53 2017'
p146
sS'response'
p147
g57
(S's\xa2?\x00\x00<div><table><tr><td style="font-weight:bold;vertical-align:top;">body</td><td style="vertical-align:top;">:</td><td><div>&lt;cStringIO.StringO object at 0x7f0b3e3d3d50&gt;</div></td></tr><tr><td style="font-weight:bold;vertical-align:top;">cookies</td><td style="vertical-align:top;">:</td><td><div><table><tr><td style="font-weight:bold;vertical-align:top;">session_id_pestlist</td><td style="vertical-align:top;">:</td><td><div>127.0.0.1-76c46f25-ccd3-4a89-b342-ea83818b215b<table><tr><td style="font-weight:bold;vertical-align:top;">comment</td><td style="vertical-align:top;">:</td><td><div></div></td></tr><tr><td style="font-weight:bold;vertical-align:top;">domain</td><td style="vertical-align:top;">:</td><td><div></div></td></tr><tr><td style="font-weight:bold;vertical-align:top;">expires</td><td style="vertical-align:top;">:</td><td><div></div></td></tr><tr><td style="font-weight:bold;vertical-align:top;">httponly</td><td style="vertical-align:top;">:</td><td><div></div></td></tr><tr><td style="font-weight:bold;vertical-align:top;">max-age</td><td style="vertical-align:top;">:</td><td><div></div></td></tr><tr><td style="font-weight:bold;vertical-align:top;">path</td><td style="vertical-align:top;">:</td><td><div>/</div></td></tr><tr><td style="font-weight:bold;vertical-align:top;">secure</td><td style="vertical-align:top;">:</td><td><div></div></td></tr><tr><td style="font-weight:bold;vertical-align:top;">version</td><td style="vertical-align:top;">:</td><td><div></div></td></tr></table></div></td></tr></table></div></td></tr><tr><td style="font-weight:bold;vertical-align:top;">delimiters</td><td style="vertical-align:top;">:</td><td><div><table><tr><td><div>{{</div></td></tr><tr><td><div>}}</div></td></tr></table></div></td></tr><tr><td style="font-weight:bold;vertical-align:top;">files</td><td style="vertical-align:top;">:</td><td><div><table></table></div></td></tr><tr><td style="font-weight:bold;vertical-align:top;">flash</td><td style="vertical-align:top;">:</td><td><div></div></td></tr><tr><td style="font-weight:bold;vertical-align:top;">form_label_separator</td><td style="vertical-align:top;">:</td><td><div></div></td></tr><tr><td style="font-weight:bold;vertical-align:top;">formstyle</td><td style="vertical-align:top;">:</td><td><div>bootstrap3_inline</div></td></tr><tr><td style="font-weight:bold;vertical-align:top;">generic_patterns</td><td style="vertical-align:top;">:</td><td><div><table><tr><td><div>*</div></td></tr></table></div></td></tr><tr><td style="font-weight:bold;vertical-align:top;">google_analytics_id</td><td style="vertical-align:top;">:</td><td><div>None</div></td></tr><tr><td style="font-weight:bold;vertical-align:top;">headers</td><td style="vertical-align:top;">:</td><td><div><table><tr><td style="font-weight:bold;vertical-align:top;">X-Powered-By</td><td style="vertical-align:top;">:</td><td><div>web2py</div></td></tr></table></div></td></tr><tr><td style="font-weight:bold;vertical-align:top;">logo</td><td style="vertical-align:top;">:</td><td><div><a class="navbar-brand" href="http://www.web2py.com/" id="web2py-logo"><b>web<span>2</span>py</b>&trade;&nbsp;</a></div></td></tr><tr><td style="font-weight:bold;vertical-align:top;">menu</td><td style="vertical-align:top;">:</td><td><div><table><tr><td><div><table><tr><td><div>Home</div></td></tr><tr><td><div>False</div></td></tr><tr><td><div>/pestlist/default/index</div></td></tr><tr><td><div><table></table></div></td></tr></table></div></td></tr><tr><td><div><table><tr><td><div>My Sites</div></td></tr><tr><td><div>False</div></td></tr><tr><td><div>/admin/default/site</div></td></tr></table></div></td></tr><tr><td><div><table><tr><td><div>This App</div></td></tr><tr><td><div>False</div></td></tr><tr><td><div>#</div></td></tr><tr><td><div><table><tr><td><div><table><tr><td><div>Design</div></td></tr><tr><td><div>False</div></td></tr><tr><td><div>/admin/default/design/pestlist</div></td></tr></table></div></td></tr><tr><td><div><li class="divider"></li></div></td></tr><tr><td><div><table><tr><td><div>Controller</div></td></tr><tr><td><div>False</div></td></tr><tr><td><div>/admin/default/edit/pestlist/controllers/default.py</div></td></tr></table></div></td></tr><tr><td><div><table><tr><td><div>View</div></td></tr><tr><td><div>False</div></td></tr><tr><td><div>/admin/default/edit/pestlist/views/default/populate_uno.html</div></td></tr></table></div></td></tr><tr><td><div><table><tr><td><div>DB Model</div></td></tr><tr><td><div>False</div></td></tr><tr><td><div>/admin/default/edit/pestlist/models/db.py</div></td></tr></table></div></td></tr><tr><td><div><table><tr><td><div>Menu Model</div></td></tr><tr><td><div>False</div></td></tr><tr><td><div>/admin/default/edit/pestlist/models/menu.py</div></td></tr></table></div></td></tr><tr><td><div><table><tr><td><div>Config.ini</div></td></tr><tr><td><div>False</div></td></tr><tr><td><div>/admin/default/edit/pestlist/private/appconfig.ini</div></td></tr></table></div></td></tr><tr><td><div><table><tr><td><div>Layout</div></td></tr><tr><td><div>False</div></td></tr><tr><td><div>/admin/default/edit/pestlist/views/layout.html</div></td></tr></table></div></td></tr><tr><td><div><table><tr><td><div>Stylesheet</div></td></tr><tr><td><div>False</div></td></tr><tr><td><div>/admin/default/edit/pestlist/static/css/web2py-bootstrap3.css</div></td></tr></table></div></td></tr><tr><td><div><table><tr><td><div>Database</div></td></tr><tr><td><div>False</div></td></tr><tr><td><div>/pestlist/appadmin/index</div></td></tr></table></div></td></tr><tr><td><div><table><tr><td><div>Errors</div></td></tr><tr><td><div>False</div></td></tr><tr><td><div>/admin/default/errors/pestlist</div></td></tr></table></div></td></tr><tr><td><div><table><tr><td><div>About</div></td></tr><tr><td><div>False</div></td></tr><tr><td><div>/admin/default/about/pestlist</div></td></tr></table></div></td></tr></table></div></td></tr></table></div></td></tr><tr><td><div><table><tr><td><div>web2py.com</div></td></tr><tr><td><div>False</div></td></tr><tr><td><div>#</div></td></tr><tr><td><div><table><tr><td><div><table><tr><td><div>Download</div></td></tr><tr><td><div>False</div></td></tr><tr><td><div>http://www.web2py.com/examples/default/download</div></td></tr></table></div></td></tr><tr><td><div><table><tr><td><div>Support</div></td></tr><tr><td><div>False</div></td></tr><tr><td><div>http://www.web2py.com/examples/default/support</div></td></tr></table></div></td></tr><tr><td><div><table><tr><td><div>Demo</div></td></tr><tr><td><div>False</div></td></tr><tr><td><div>http://web2py.com/demo_admin</div></td></tr></table></div></td></tr><tr><td><div><table><tr><td><div>Quick Examples</div></td></tr><tr><td><div>False</div></td></tr><tr><td><div>http://web2py.com/examples/default/examples</div></td></tr></table></div></td></tr><tr><td><div><table><tr><td><div>FAQ</div></td></tr><tr><td><div>False</div></td></tr><tr><td><div>http://web2py.com/AlterEgo</div></td></tr></table></div></td></tr><tr><td><div><table><tr><td><div>Videos</div></td></tr><tr><td><div>False</div></td></tr><tr><td><div>http://www.web2py.com/examples/default/videos/</div></td></tr></table></div></td></tr><tr><td><div><table><tr><td><div>Free Applications</div></td></tr><tr><td><div>False</div></td></tr><tr><td><div>http://web2py.com/appliances</div></td></tr></table></div></td></tr><tr><td><div><table><tr><td><div>Plugins</div></td></tr><tr><td><div>False</div></td></tr><tr><td><div>http://web2py.com/plugins</div></td></tr></table></div></td></tr><tr><td><div><table><tr><td><div>Recipes</div></td></tr><tr><td><div>False</div></td></tr><tr><td><div>http://web2pyslices.com/</div></td></tr></table></div></td></tr></table></div></td></tr></table></div></td></tr><tr><td><div><table><tr><td><div>Documentation</div></td></tr><tr><td><div>False</div></td></tr><tr><td><div>#</div></td></tr><tr><td><div><table><tr><td><div><table><tr><td><div>Online book</div></td></tr><tr><td><div>False</div></td></tr><tr><td><div>http://www.web2py.com/book</div></td></tr></table></div></td></tr><tr><td><div><li class="divider"></li></div></td></tr><tr><td><div><table><tr><td><div>Preface</div></td></tr><tr><td><div>False</div></td></tr><tr><td><div>http://www.web2py.com/book/default/chapter/00</div></td></tr></table></div></td></tr><tr><td><div><table><tr><td><div>Introduction</div></td></tr><tr><td><div>False</div></td></tr><tr><td><div>http://www.web2py.com/book/default/chapter/01</div></td></tr></table></div></td></tr><tr><td><div><table><tr><td><div>Python</div></td></tr><tr><td><div>False</div></td></tr><tr><td><div>http://www.web2py.com/book/default/chapter/02</div></td></tr></table></div></td></tr><tr><td><div><table><tr><td><div>Overview</div></td></tr><tr><td><div>False</div></td></tr><tr><td><div>http://www.web2py.com/book/default/chapter/03</div></td></tr></table></div></td></tr><tr><td><div><table><tr><td><div>The Core</div></td></tr><tr><td><div>False</div></td></tr><tr><td><div>http://www.web2py.com/book/default/chapter/04</div></td></tr></table></div></td></tr><tr><td><div><table><tr><td><div>The Views</div></td></tr><tr><td><div>False</div></td></tr><tr><td><div>http://www.web2py.com/book/default/chapter/05</div></td></tr></table></div></td></tr><tr><td><div><table><tr><td><div>Database</div></td></tr><tr><td><div>False</div></td></tr><tr><td><div>http://www.web2py.com/book/default/chapter/06</div></td></tr></table></div></td></tr><tr><td><div><table><tr><td><div>Forms and Validators</div></td></tr><tr><td><div>False</div></td></tr><tr><td><div>http://www.web2py.com/book/default/chapter/07</div></td></tr></table></div></td></tr><tr><td><div><table><tr><td><div>Email and SMS</div></td></tr><tr><td><div>False</div></td></tr><tr><td><div>http://www.web2py.com/book/default/chapter/08</div></td></tr></table></div></td></tr><tr><td><div><table><tr><td><div>Access Control</div></td></tr><tr><td><div>False</div></td></tr><tr><td><div>http://www.web2py.com/book/default/chapter/09</div></td></tr></table></div></td></tr><tr><td><div><table><tr><td><div>Services</div></td></tr><tr><td><div>False</div></td></tr><tr><td><div>http://www.web2py.com/book/default/chapter/10</div></td></tr></table></div></td></tr><tr><td><div><table><tr><td><div>Ajax Recipes</div></td></tr><tr><td><div>False</div></td></tr><tr><td><div>http://www.web2py.com/book/default/chapter/11</div></td></tr></table></div></td></tr><tr><td><div><table><tr><td><div>Components and Plugins</div></td></tr><tr><td><div>False</div></td></tr><tr><td><div>http://www.web2py.com/book/default/chapter/12</div></td></tr></table></div></td></tr><tr><td><div><table><tr><td><div>Deployment Recipes</div></td></tr><tr><td><div>False</div></td></tr><tr><td><div>http://www.web2py.com/book/default/chapter/13</div></td></tr></table></div></td></tr><tr><td><div><table><tr><td><div>Other Recipes</div></td></tr><tr><td><div>False</div></td></tr><tr><td><div>http://www.web2py.com/book/default/chapter/14</div></td></tr></table></div></td></tr><tr><td><div><table><tr><td><div>Helping web2py</div></td></tr><tr><td><div>False</div></td></tr><tr><td><div>http://www.web2py.com/book/default/chapter/15</div></td></tr></table></div></td></tr><tr><td><div><table><tr><td><div>Buy web2py\'s book</div></td></tr><tr><td><div>False</div></td></tr><tr><td><div>http://stores.lulu.com/web2py</div></td></tr></table></div></td></tr></table></div></td></tr></table></div></td></tr><tr><td><div><table><tr><td><div>Community</div></td></tr><tr><td><div>False</div></td></tr><tr><td><div>None</div></td></tr><tr><td><div><table><tr><td><div><table><tr><td><div>Groups</div></td></tr><tr><td><div>False</div></td></tr><tr><td><div>http://www.web2py.com/examples/default/usergroups</div></td></tr></table></div></td></tr><tr><td><div><table><tr><td><div>Twitter</div></td></tr><tr><td><div>False</div></td></tr><tr><td><div>http://twitter.com/web2py</div></td></tr></table></div></td></tr><tr><td><div><table><tr><td><div>Live Chat</div></td></tr><tr><td><div>False</div></td></tr><tr><td><div>http://webchat.freenode.net/?channels=web2py</div></td></tr></table></div></td></tr></table></div></td></tr></table></div></td></tr></table></div></td></tr><tr><td style="font-weight:bold;vertical-align:top;">meta</td><td style="vertical-align:top;">:</td><td><div><table><tr><td style="font-weight:bold;vertical-align:top;">author</td><td style="vertical-align:top;">:</td><td><div>Your Name &lt;you@example.com&gt;</div></td></tr><tr><td style="font-weight:bold;vertical-align:top;">description</td><td style="vertical-align:top;">:</td><td><div>a cool new app</div></td></tr><tr><td style="font-weight:bold;vertical-align:top;">generator</td><td style="vertical-align:top;">:</td><td><div>Web2py Web Framework</div></td></tr><tr><td style="font-weight:bold;vertical-align:top;">keywords</td><td style="vertical-align:top;">:</td><td><div><table><tr><td><div>web2py</div></td></tr><tr><td><div>python</div></td></tr><tr><td><div>framework</div></td></tr></table></div></td></tr></table></div></td></tr><tr><td style="font-weight:bold;vertical-align:top;">models_to_run</td><td style="vertical-align:top;">:</td><td><div><table><tr><td><div>^\\w+\\.py$</div></td></tr><tr><td><div>^default/\\w+\\.py$</div></td></tr><tr><td><div>^default/populate_uno/\\w+\\.py$</div></td></tr></table></div></td></tr><tr><td style="font-weight:bold;vertical-align:top;">postprocessing</td><td style="vertical-align:top;">:</td><td><div><table></table></div></td></tr><tr><td style="font-weight:bold;vertical-align:top;">session_client</td><td style="vertical-align:top;">:</td><td><div>127.0.0.1</div></td></tr><tr><td style="font-weight:bold;vertical-align:top;">session_cookie_compression_level</td><td style="vertical-align:top;">:</td><td><div>None</div></td></tr><tr><td style="font-weight:bold;vertical-align:top;">session_cookie_expires</td><td style="vertical-align:top;">:</td><td><div>None</div></td></tr><tr><td style="font-weight:bold;vertical-align:top;">session_data_name</td><td style="vertical-align:top;">:</td><td><div>session_data_pestlist</div></td></tr><tr><td style="font-weight:bold;vertical-align:top;">session_file</td><td style="vertical-align:top;">:</td><td><div>&lt;open file &#x27;/home/aubreymoore/Devel/playpen/web2py/applications/pestlist/sessions/0a1/1c2/127.0.0.1-76c46f25-ccd3-4a89-b342-ea83818b215b&#x27;, mode &#x27;rb+&#x27; at 0x7f0b3442be40&gt;</div></td></tr><tr><td style="font-weight:bold;vertical-align:top;">session_filename</td><td style="vertical-align:top;">:</td><td><div>/home/aubreymoore/Devel/playpen/web2py/applications/pestlist/sessions/127.0.0.1-76c46f25-ccd3-4a89-b342-ea83818b215b</div></td></tr><tr><td style="font-weight:bold;vertical-align:top;">session_hash</td><td style="vertical-align:top;">:</td><td><div>3417a08faa9626d65b74a927689fbbf8</div></td></tr><tr><td style="font-weight:bold;vertical-align:top;">session_id</td><td style="vertical-align:top;">:</td><td><div>127.0.0.1-76c46f25-ccd3-4a89-b342-ea83818b215b</div></td></tr><tr><td style="font-weight:bold;vertical-align:top;">session_id_name</td><td style="vertical-align:top;">:</td><td><div>session_id_pestlist</div></td></tr><tr><td style="font-weight:bold;vertical-align:top;">session_locked</td><td style="vertical-align:top;">:</td><td><div>True</div></td></tr><tr><td style="font-weight:bold;vertical-align:top;">session_masterapp</td><td style="vertical-align:top;">:</td><td><div>pestlist</div></td></tr><tr><td style="font-weight:bold;vertical-align:top;">session_new</td><td style="vertical-align:top;">:</td><td><div>False</div></td></tr><tr><td style="font-weight:bold;vertical-align:top;">session_storage_type</td><td style="vertical-align:top;">:</td><td><div>file</div></td></tr><tr><td style="font-weight:bold;vertical-align:top;">status</td><td style="vertical-align:top;">:</td><td><div>200</div></td></tr><tr><td style="font-weight:bold;vertical-align:top;">subtitle</td><td style="vertical-align:top;">:</td><td><div></div></td></tr><tr><td style="font-weight:bold;vertical-align:top;">title</td><td style="vertical-align:top;">:</td><td><div>Pestlist</div></td></tr><tr><td style="font-weight:bold;vertical-align:top;">view</td><td style="vertical-align:top;">:</td><td><div>default/populate_uno.html</div></td></tr></table></div>'
tRp148
sS'locals'
p149
(dp150
S'x'
g45
sS'data'
p151
S"[{u'data_sources_number': 1, u'in_curated_sources': False, u'is_known_name': True, u'results': [{u'canonical_form': u'Agave sisalana', u'classification_path': u'Plantae|Tracheophyta|Liliopsida|Asparagales|Asparagaceae|Agave|Agave sisalana', u'classification_path_ids': u'6|7707728|196|1169|7683|2766430|2766636', u'classification_path_ranks': u'kingdom|phylum|class|order|family|genus|species', u'data_source_id': 11, u'data_source_title': u'GBIF Backbone Taxonomy', u'edit_distance': 0, u'gni_uuid': u'b2a8b282-f846-557e-8f96-aaa26d068cb5', u'imported_at': u'2016-11-13T19:37:29Z', u'match_type': 2, ...}], u'supplied_name_string': u'Agave sisalana'}, {u'is_known_name': False, u'supplied_name_string': u'Avocado'}, {u'data_sources_number': 1, u'in_curated_sources': False, u'is_known_name': True, u'results': [{u'canonical_form': u'Persea americana', u'classification_path': u'Plantae|Tracheophyta|Magnoliopsida|Laurales|Lauraceae|Persea|Persea americana', u'classification_path_ids': u'6|7707728|220|407|6688|3034041|3034046', u'classification_path_ranks': u'kingdom|phylum|class|order|family|genus|species', u'data_source_id': 11, u'data_source_title': u'GBIF Backbone Taxonomy', u'edit_distance': 0, u'gni_uuid': u'e9a1bdf0-5723-5e79-af71-d0624abe84bf', u'imported_at': u'2016-11-13T20:45:44Z', u'match_type': 2, ...}], u'supplied_name_string': u'Persea americana'}, {u'data_sources_number': 1, u'in_curated_sources': False, u'is_known_name': True, u'results': [{u'canonical_form': u'Bambusa', u'classification_path': u'Plantae|Tracheophyta|Liliopsida|Poales|Poaceae|Bambusa', u'classification_path_ids': u'6|7707728|196|1369|3073|2705751', u'classification_path_ranks': u'kingdom|phylum|class|order|family|genus', u'data_source_id': 11, u'data_source_title': u'GBIF Backbone Taxonomy', u'edit_distance': 0, u'gni_uuid': u'a925e219-ed86-5bc4-9da8-1c87a47fe6ee', u'imported_at': u'2016-11-13T19:33:26Z', u'match_type': 2, ...}], u'supplied_name_string': u'Bambusa'}, {u'data_sources_number': 1, u'in_curated_sources': False, u'is_known_name': True, u'results': [{u'canonical_form': u'Phaseolus', u'classification_path': u'Plantae|Tracheophyta|Magnoliopsida|Fabales|Fabaceae|Phaseolus', u'classification_path_ids': u'6|7707728|220|1370|5386|2947798', u'classification_path_ranks': u'kingdom|phylum|class|order|family|genus', u'data_source_id': 11, u'data_source_title': u'GBIF Backbone Taxonomy', u'edit_distance': 0, u'gni_uuid': u'2ce3b469-d181-522d-ab58-ed179758355e', u'imported_at': u'2016-11-13T21:03:10Z', u'match_type': 2, ...}], u'supplied_name_string': u'Phaseolus'}, {u'data_sources_number': 1, u'in_curated_sources': False, u'is_known_name': True, u'results': [{u'canonical_form': u'Cynodon', u'classification_path': u'Plantae|Tracheophyta|Liliopsida|Poales|Poaceae|Cynodon', u'classification_path_ids': u'6|7707728|196|1369|3073|2703525', u'classification_path_ranks': u'kingdom|phylum|class|order|family|genus', u'data_source_id': 11, u'data_source_title': u'GBIF Backbone Taxonomy', u'edit_distance': 0, u'gni_uuid': u'16c709c2-b3ab-5e05-8ecc-2b5045e65c56', u'imported_at': u'2016-11-13T19:33:29Z', u'match_type': 2, ...}], u'supplied_name_string': u'Cynodon'}, {u'data_sources_number': 1, u'in_curated_sources': False, u'is_known_name': True, u'results': [{u'canonical_form': u'Areca', u'classification_path': u'Plantae|Tracheophyta|Liliopsida|Arecales|Arecaceae|Areca', u'classification_path_ids': u'6|7707728|196|552|7681|2736518', u'classification_path_ranks': u'kingdom|phylum|class|order|family|genus', u'data_source_id': 11, u'data_source_title': u'GBIF Backbone Taxonomy', u'edit_distance': 0, u'gni_uuid': u'1b54e274-be21-5fbc-a4df-1feae31e8a6e', u'imported_at': u'2016-11-13T19:01:05Z', u'match_type': 2, ...}], u'supplied_name_string': u'Areca'}, {u'data_sources_number': 1, u'in_curated_sources': False, u'is_known_name': True, u'results': [{u'canonical_form': u'Artocarpus altilis', u'classification_path': u'Plantae|Tracheophyta|Magnoliopsida|Rosales|Moraceae|Artocarpus|Artocarpus altilis', u'classification_path_ids': u'6|7707728|220|691|6640|2984563|8032558', u'classification_path_ranks': u'kingdom|phylum|class|order|family|genus|species', u'data_source_id': 11, u'data_source_title': u'GBIF Backbone Taxonomy', u'edit_distance': 0, u'gni_uuid': u'e66e3cac-ead9-5576-a2e6-c36c5893a985', u'imported_at': u'2016-11-13T21:27:08Z', u'match_type': 1, ...}], u'supplied_name_string': u'Artocarpus altilis'}, {u'data_sources_number': 1, u'in_curated_sources': False, u'is_known_name': True, u'results': [{u'canonical_form': u'Brassica', u'classification_path': u'Plantae|Tracheophyta|Magnoliopsida|Brassicales|Brassicaceae|Brassica', u'classification_path_ids': u'6|7707728|220|7225535|3112|3042506', u'classification_path_ranks': u'kingdom|phylum|class|order|family|genus', u'data_source_id': 11, u'data_source_title': u'GBIF Backbone Taxonomy', u'edit_distance': 0, u'gni_uuid': u'd33eb444-d729-5b73-abc2-5c87550cd617', u'imported_at': u'2016-11-13T20:10:49Z', u'match_type': 2, ...}], u'supplied_name_string': u'Brassica'}, {u'data_sources_number': 1, u'in_curated_sources': False, u'is_known_name': True, u'results': [{u'canonical_form': u'Manihot esculenta', u'classification_path': u'Plantae|Tracheophyta|Magnoliopsida|Malpighiales|Euphorbiaceae|Manihot|Manihot esculenta', u'classification_path_ids': u'6|7707728|220|1414|4691|3060685|3060998', u'classification_path_ranks': u'kingdom|phylum|class|order|family|genus|species', u'data_source_id': 11, u'data_source_title': u'GBIF Backbone Taxonomy', u'edit_distance': 0, u'gni_uuid': u'aefc2890-bd60-5ca0-966c-e8a587b430bc', u'imported_at': u'2016-11-13T20:08:09Z', u'match_type': 2, ...}], u'supplied_name_string': u'Manihot esculenta'}, {u'data_sources_number': 1, u'in_curated_sources': False, u'is_known_name': True, u'results': [{u'canonical_form': u'Theobroma cacao', u'classification_path': u'Plantae|Tracheophyta|Magnoliopsida|Malvales|Malvaceae|Theobroma|Theobroma cacao', u'classification_path_ids': u'6|7707728|220|941|6685|2984934|3152205', u'classification_path_ranks': u'kingdom|phylum|class|order|family|genus|species', u'data_source_id': 11, u'data_source_title': u'GBIF Backbone Taxonomy', u'edit_distance': 0, u'gni_uuid': u'8baed9bd-9b5c-59f6-b582-fb828c523d07', u'imported_at': u'2016-11-13T21:13:24Z', u'match_type': 2, ...}], u'supplied_name_string': u'Theobroma cacao'}, {u'data_sources_number': 1, u'in_curated_sources': False, u'is_known_name': True, u'results': [{u'canonical_form': u'Cocos nucifera', u'classification_path': u'Plantae|Tracheophyta|Liliopsida|Arecales|Arecaceae|Cocos|Cocos nucifera', u'classification_path_ids': u'6|7707728|196|552|7681|2735116|2735117', u'classification_path_ranks': u'kingdom|phylum|class|order|family|genus|species', u'data_source_id': 11, u'data_source_title': u'GBIF Backbone Taxonomy', u'edit_distance': 0, u'gni_uuid': u'127addc3-adb6-570d-8858-fa2b58c97d27', u'imported_at': u'2016-11-13T21:43:28Z', u'match_type': 2, ...}], u'supplied_name_string': u'Cocos nucifera'}, {u'data_sources_number': 1, u'in_curated_sources': False, u'is_known_name': True, u'results': [{u'canonical_form': u'Coffea', u'classification_path': u'Plantae|Tracheophyta|Magnoliopsida|Gentianales|Rubiaceae|Coffea', u'classification_path_ids': u'6|7707728|220|412|8798|2895315', u'classification_path_ranks': u'kingdom|phylum|class|order|family|genus', u'data_source_id': 11, u'data_source_title': u'GBIF Backbone Taxonomy', u'edit_distance': 0, u'gni_uuid': u'c50975fd-6374-5028-a65c-5e21e2b19b53', u'imported_at': u'2016-11-13T22:34:45Z', u'match_type': 2, ...}], u'supplied_name_string': u'Coffea'}, {u'data_sources_number': 1, u'in_curated_sources': False, u'is_known_name': True, u'results': [{u'canonical_form': u'Gossypium', u'classification_path': u'Plantae|Tracheophyta|Magnoliopsida|Malvales|Malvaceae|Gossypium', u'classification_path_ids': u'6|7707728|220|941|6685|3152652', u'classification_path_ranks': u'kingdom|phylum|class|order|family|genus', u'data_source_id': 11, u'data_source_title': u'GBIF Backbone Taxonomy', u'edit_distance': 0, u'gni_uuid': u'6cfd5875-e46a-5a5c-8e76-529dfe577e0f', u'imported_at': u'2016-11-13T21:22:10Z', u'match_type': 2, ...}], u'supplied_name_string': u'Gossypium'}, {u'data_sources_number': 1, u'in_curated_sources': False, u'is_known_name': True, u'results': [{u'canonical_form': u'Codiaeum variegatum', u'classification_path': u'Plantae|Tracheophyta|Magnoliopsida|Malpighiales|Euphorbiaceae|Codiaeum|Codiaeum variegatum', u'classification_path_ids': u'6|7707728|220|1414|4691|3071464|3071476', u'classification_path_ranks': u'kingdom|phylum|class|order|family|genus|species', u'data_source_id': 11, u'data_source_title': u'GBIF Backbone Taxonomy', u'edit_distance': 0, u'gni_uuid': u'9a916565-dd32-5cd7-9cfb-3865a82bc3b8', u'imported_at': u'2016-11-13T20:12:48Z', u'match_type': 2, ...}], u'supplied_name_string': u'Codiaeum variegatum'}, {u'data_sources_number': 1, u'in_curated_sources': False, u'is_known_name': True, u'results': [{u'canonical_form': u'Cucurbitaceae', u'classification_path': u'Plantae|Tracheophyta|Magnoliopsida|Cucurbitales|Cucurbitaceae', u'classification_path_ids': u'6|7707728|220|7224005|6634', u'classification_path_ranks': u'kingdom|phylum|class|order|family', u'data_source_id': 11, u'data_source_title': u'GBIF Backbone Taxonomy', u'edit_distance': 0, u'gni_uuid': u'52bd9805-cb5b-5147-861e-712aeccf9cdc', u'imported_at': u'2016-11-13T19:33:08Z', u'match_type': 1, ...}], u'supplied_name_string': u'Cucurbitaceae'}, {u'data_sources_number': 1, u'in_curated_sources': False, u'is_known_name': True, u'results': [{u'canonical_form': u'Cycas', u'classification_path': u'Plantae|Tracheophyta|Cycadopsida|Cycadales|Cycadaceae|Cycas', u'classification_path_ids': u'6|7707728|228|834|6168|2683206', u'classification_path_ranks': u'kingdom|phylum|class|order|family|genus', u'data_source_id': 11, u'data_source_title': u'GBIF Backbone Taxonomy', u'edit_distance': 0, u'gni_uuid': u'c3e2f49d-2401-5d23-b708-461accc9143c', u'imported_at': u'2016-11-13T20:56:46Z', u'match_type': 2, ...}], u'supplied_name_string': u'Cycas'}, {u'data_sources_number': 1, u'in_curated_sources': False, u'is_known_name': True, u'results': [{u'canonical_form': u'Solanum melongena', u'classification_path': u'Plantae|Tracheophyta|Magnoliopsida|Solanales|Solanaceae|Solanum|Solanum melongena', u'classification_path_ids': u'6|7707728|220|1176|7717|2928997|2930617', u'classification_path_ranks': u'kingdom|phylum|class|order|family|genus|species', u'data_source_id': 11, u'data_source_title': u'GBIF Backbone Taxonomy', u'edit_distance': 0, u'gni_uuid': u'252901ea-1e44-5ee9-bb22-5c97897278c5', u'imported_at': u'2016-11-13T22:39:49Z', u'match_type': 2, ...}], u'supplied_name_string': u'Solanum melongena'}, {u'data_sources_number': 1, u'in_curated_sources': False, u'is_known_name': True, u'results': [{u'canonical_form': u'Zingiber officinale', u'classification_path': u'Plantae|Tracheophyta|Liliopsida|Zingiberales|Zingiberaceae|Zingiber|Zingiber officinale', u'classification_path_ids': u'6|7707728|196|627|4687|2756693|2757280', u'classification_path_ranks': u'kingdom|phylum|class|order|family|genus|species', u'data_source_id': 11, u'data_source_title': u'GBIF Backbone Taxonomy', u'edit_distance': 0, u'gni_uuid': u'2e48214a-14f8-589d-b73f-14b0e6d849d7', u'imported_at': u'2016-11-13T20:24:09Z', u'match_type': 2, ...}], u'supplied_name_string': u'Zingiber officinale'}, {u'data_sources_number': 1, u'in_curated_sources': False, u'is_known_name': True, u'results': [{u'canonical_form': u'Psidium guajava', u'classification_path': u'Plantae|Tracheophyta|Magnoliopsida|Myrtales|Myrtaceae|Psidium|Psidium guajava', u'classification_path_ids': u'6|7707728|220|690|5014|3187232|5420380', u'classification_path_ranks': u'kingdom|phylum|class|order|family|genus|species', u'data_source_id': 11, u'data_source_title': u'GBIF Backbone Taxonomy', u'edit_distance': 0, u'gni_uuid': u'40b125ac-6959-545f-9354-4585a8f2df8e', u'imported_at': u'2016-11-13T19:32:10Z', u'match_type': 2, ...}], u'supplied_name_string': u'Psidium guajava'}, ...]"
p152
sS'row'
p153
S"u'supplied_name_string'"
p154
sssS'traceback'
p155
S'Traceback (most recent call last):\n  File "/home/aubreymoore/Devel/playpen/web2py/gluon/restricted.py", line 227, in restricted\n    exec ccode in environment\n  File "/home/aubreymoore/Devel/playpen/web2py/applications/pestlist/controllers/default.py", line 384, in <module>\n  File "/home/aubreymoore/Devel/playpen/web2py/gluon/globals.py", line 417, in <lambda>\n    self._caller = lambda f: f()\n  File "/home/aubreymoore/Devel/playpen/web2py/applications/pestlist/controllers/default.py", line 279, in populate_uno\n    x.append(row)\nAttributeError: \'dict\' object has no attribute \'append\'\n'
p156
s.