(dp1
S'output'
p2
S"<type 'exceptions.KeyError'> 'results'"
p3
sS'layer'
p4
S'/home/aubreymoore/Devel/playpen/web2py/applications/pestlist/controllers/default.py'
p5
sS'code'
p6
S'# -*- coding: utf-8 -*-\n# this file is released under public domain and you can use without limitations\n\n# -------------------------------------------------------------------------\n# This is a sample controller\n# - index is the default action of any application\n# - user is required for authentication and authorization\n# - download is for downloading files uploaded in the db (does streaming)\n# -------------------------------------------------------------------------\n\n\ndef display_taxonomic_tree():\n    import json\n    # Important: root nodes must have \'parent\':\'#\'\n    m = None\n    #root_taxon = \'\'\n\n    form=FORM(\'Root taxon (leave blank to include all taxa):\',\n        INPUT(_name=\'root_taxon\'),\n        INPUT(_type=\'submit\'),\n    )\n\n    if form.accepts(request,session):\n\n        root_taxon = form.vars.root_taxon\n        print(root_taxon)\n\n        #level_dict = {\'kingdom\':1,\'phylum\':2,\'class\':3,\'order\':4,\'family\':5,\'genus\':6,\'species\':7}\n        if root_taxon == \'\':\n            rows = db(db.taxon2).select(orderby=db.taxon2.lineage)\n        else:\n            rows = db(db.taxon2.lineage.contains(root_taxon)).select(orderby=db.taxon2.lineage)\n            rows[0].parent_tid = \'#\'\n\n        mylist = []\n        for row in rows:\n            if row.trank in [\'genus\',\'species\']:\n                text = \'{} <i>{}</i>\'.format(row.trank, row.name)\n            else:\n                text = \'{} {}\'.format(row.trank, row.name)\n            mylist.append({\'id\':row.tid,\'parent\':row.parent_tid,\'text\':text})\n        m = json.dumps(mylist)\n\n    elif form.errors:\n        response.flash = \'form has errors\'\n    else:\n        response.flash = \'Please select a root taxon and press "SUBMIT QUERY".\'\n    return dict(form=form, m=m)\n\n# def show_tree():\n#     root_taxon = \'Plantae\'\n#     level_dict = {\'kingdom\':1,\'phylum\':2,\'class\':3,\'order\':4,\'family\':5,\'genus\':6,\'species\':7}\n#     previous_level = 0\n#     s = \'<ul>\\n\'\n#     first_row = True\n#     for row in db(db.taxon2.lineage.contains(root_taxon)).select(orderby=db.taxon2.lineage):\n#         if first_row:\n#             previous_level = level_dict[row.trank]\n#             first_row = False\n#         level = level_dict[row.trank]\n#         while level > previous_level:\n#             s +=\'<ul>\\n\'\n#             previous_level += 1\n#         while level < previous_level:\n#             s += \'</ul>\\n\'\n#             previous_level -= 1\n#         s+= \'<li>{} {}</li>\\n\'.format(row.trank, row.name)\n#         previous_level = level\n#     return dict(s=s)\n#\n# def show_tree3():\n#     return locals()\n#\n# def show_tree2():\n#     root_taxon = \'Plantae\'\n#     level_dict = {\'kingdom\':1,\'phylum\':2,\'class\':3,\'order\':4,\'family\':5,\'genus\':6,\'species\':7}\n#     rows = db(db.taxon2.lineage.contains(root_taxon)).select(orderby=db.taxon2.lineage)\n#     return locals()\n#\n#\n\n\ndef get_supplied_names():\n    data = get_extracted_names()\n    mylist = data[\'resolved_names\']\n    name_list = []\n    for row in mylist:\n        # print(row)\n        print\n        print(row[\'supplied_name_string\'])\n        print(row[\'is_known_name\'])\n        print(row[\'results\'][0].get(\'canonical_form\',\'\'))\n        print(row[\'results\'][0].get(\'taxon_id\',\'\'))\n        # break\n    #     mydict = {\n    #         \'supplied_name_string\': row[\'supplied_name_string\'],\n    #         \'is_known_name\': row[\'is_known_name\'],\n    #         \'canonical_form\': row[\'results\'][0][\'canonical_form\'],\n    #         \'taxon_id\': row[\'results\'][0][\'taxon_id\'],\n    #     }\n    #     name_list.append(mydict)\n    # return BEAUTIFY(name_list)\n\n\ndef get_extracted_names():\n    \'\'\'\n    Returns the contents of the \'extracted_names_json\' field in the first\n    record of the \'extracted_names\' table.\n    \'\'\'\n    return db(db.extracted_names).select()[0][\'extracted_names_json\']\n\n\n# def parse_resolved_names():\n#     \'\'\'\n#     docs go Here\n#     \'\'\'\n#     rows = db(db.taxon).select()\n#     if len(rows) == 0:\n#         db.taxon.insert(name=\'root\', tid=0)\n#         print(\'root added\')\n#\n#     resolved_names_list = get_extracted_names()[\'resolved_names\']\n#     for resolved_name in resolved_names_list:\n#         results_list = resolved_name.get(\'results\', None)\n#         if results_list:\n#             result_dict = results_list[0]\n#             classification_path = result_dict[\'classification_path\'].split(\'|\')\n#             classification_path_ids = result_dict[\'classification_path_ids\'].split(\'|\')\n#             classification_path_ranks = result_dict[\'classification_path_ranks\'].split(\'|\')\n#\n#             print classification_path\n#\n#             assert classification_path_ranks[0] == \'kingdom\'\n#             assert len(classification_path) == len(classification_path_ids)\n#             assert len(classification_path_ids) == len(classification_path_ranks)\n#\n#             for i in range(len(classification_path)):\n#                 if i == 0:\n#                     parent_tid = 0\n#                 else:\n#                     parent_tid = classification_path_ids[i-1]\n#\n#                 tid = classification_path_ids[i]\n#                 name = classification_path[i]\n#                 trank = classification_path_ranks[i]\n#\n#                 try:\n#                     print(\'trying to add tid={}, name={}, trank={}, parent_tid={}\'.format(tid, name, trank, parent_tid))\n#                     db.taxon.insert(tid=tid, name=name, trank=trank, parent_tid=parent_tid)\n#                     print( \'{} added\'.format(name))\n#                 except sqlite3.IntegrityError:\n#                     print(\'{} not added - already in DB.\'.format(name))\n#                     pass\n#     return\n\ndef parse_resolved_names2():\n    \'\'\'\n    Parses the JSON data stored in \'db.extracted_names.extracted_names_json\' and\n    inserts all taxa to a self-referencing table, \'db.taxon2\'. Fields in\n    this table are:\n\n        tid: taxon id; usually a GBIF taxon id\n        parent_tid: tid of the taxon\'s parent; parent of a root must be \'#\'\n        name: taxon name\n        trank: taxon rank (kingdom, phylum, class, order family, genus or species)\n        lineage: ancestors of the taxon; eg. lineage for Oryctes rhinoceros is:\n            Animalia|Arthropoda|Insecta|Coleoptera|Dynastidae|Oryctes|Oryctes rhinoceros\n\n    Dependancies:\n        get_extracted_names\n    \'\'\'\n    import sqlite3\n\n    resolved_names_list = get_extracted_names()[\'resolved_names\']\n    for resolved_name in resolved_names_list:\n        results_list = resolved_name.get(\'results\', None)\n        if results_list:\n            result_dict = results_list[0]\n            #lineage = result_dict[\'classification_path\']\n            classification_path = result_dict[\'classification_path\'].split(\'|\')\n            classification_path_ids = result_dict[\'classification_path_ids\'].split(\'|\')\n            classification_path_ranks = result_dict[\'classification_path_ranks\'].split(\'|\')\n\n            print classification_path\n\n            assert classification_path_ranks[0] == \'kingdom\'\n            assert len(classification_path) == len(classification_path_ids)\n            assert len(classification_path_ids) == len(classification_path_ranks)\n\n            for i in range(len(classification_path)):\n                if i == 0:\n                    parent_tid = \'#\' # The hash symbol is used by jstree to signify a root node\n                else:\n                    parent_tid = classification_path_ids[i-1]\n                tid = classification_path_ids[i]\n                name = classification_path[i]\n                trank = classification_path_ranks[i]\n                lineage = \'|\'.join(classification_path[0:i+1])\n\n                try:\n                    print(\'trying to add tid={}, name={}, trank={}, lineage={}\'.format(tid, name, trank, lineage))\n                    db.taxon2.insert(tid=tid, parent_tid=parent_tid, name=name, trank=trank, lineage=lineage)\n                    print( \'{} added\'.format(name))\n                except sqlite3.IntegrityError:\n                    print(\'{} not added - already in DB.\'.format(name))\n                    pass\n    return\n\n#@auth.requires_login()\ndef show_taxon2():\n    grid = SQLFORM.grid(db.taxon2, maxtextlength=1000, paginate=1000)\n    return locals()\n\ndef find_names(doc_url):\n    \'\'\'\n    Uses the Global Names Resolver to extract scientific names from \'doc_url\'\n    which can point to an HTML or PDF document.\n    \'\'\'\n    import requests\n    import time\n\n    url = \'http://gnrd.globalnames.org/name_finder.json?\'\n    #params = {\'url\': \'https://aubreymoore.github.io/crop-pest-list/list.html\'}\n    params = {\'url\': doc_url, \'data_source_ids\': \'11\'}\n    r = requests.get(url, params)\n    mydict = r.json()\n    token_url = mydict[\'token_url\']\n    print(\'token_url: {}\'.format(token_url))\n\n    # Poll the token url once a second for 100 s to see if results have been returned.\n    i = 0\n    while i <= 100:\n        i += 1\n        time.sleep(1)\n        r = requests.get(token_url)\n        mydict = r.json()\n        status = mydict.get(\'status\',\'\')\n        queue_size = mydict.get(\'queue_size\',\'\')\n        print(\'{} status: {} queue_size: {}\'.format(i, status, queue_size))\n        if status != 303:\n            break\n    return(mydict)\n\n\ndef doit():\n    \'\'\'\n    Uses the find_names function to extract scientific names from\n    \'https://aubreymoore.github.io/crop-pest-list/list.html\' and stores the\n    returned JSON data in db.extracted_names.\n\n    Dependancies:\n        find_names\n    \'\'\'\n    if len(db(db.extracted_names).select())==0:\n        doc_url = \'https://aubreymoore.github.io/crop-pest-list/list.html\'\n        db.extracted_names.insert(extracted_names_json=find_names(doc_url))\n        return(\'Added record.\')\n    return(\'Did not add record\')\n\n\ndef index():\n    return dict(message=T(\'Welcome to pestlist!\'))\n\n\n# def user():\n#     """\n#     exposes:\n#     http://..../[app]/default/user/login\n#     http://..../[app]/default/user/logout\n#     http://..../[app]/default/user/register\n#     http://..../[app]/default/user/profile\n#     http://..../[app]/default/user/retrieve_password\n#     http://..../[app]/default/user/change_password\n#     http://..../[app]/default/user/bulk_register\n#     use @auth.requires_login()\n#         @auth.requires_membership(\'group name\')\n#         @auth.requires_permission(\'read\',\'table name\',record_id)\n#     to decorate functions that need access control\n#     also notice there is http://..../[app]/appadmin/manage/auth to allow administrator to manage users\n#     """\n#     return dict(form=auth())\n#\n#\n# @cache.action()\n# def download():\n#     """\n#     allows downloading of uploaded files\n#     http://..../[app]/default/download/[filename]\n#     """\n#     return response.download(request, db)\n#\n#\n# def call():\n#     """\n#     exposes services. for example:\n#     http://..../[app]/default/call/jsonrpc\n#     decorate with @services.jsonrpc the functions to expose\n#     supports xml, json, xmlrpc, jsonrpc, amfrpc, rss, csv\n#     """\n#     return service()\n\nresponse._vars=response._caller(get_supplied_names)\n'
p7
sS'snapshot'
p8
(dp9
S'exception'
p10
(dp11
S'__hash__'
p12
S"<method-wrapper '__hash__' of exceptions.KeyError object>"
p13
sS'__setattr__'
p14
S"<method-wrapper '__setattr__' of exceptions.KeyError object>"
p15
sS'__reduce_ex__'
p16
S'<built-in method __reduce_ex__ of exceptions.KeyError object>'
p17
sS'__getslice__'
p18
S"<method-wrapper '__getslice__' of exceptions.KeyError object>"
p19
sS'__getitem__'
p20
S"<method-wrapper '__getitem__' of exceptions.KeyError object>"
p21
sS'__setstate__'
p22
S'<built-in method __setstate__ of exceptions.KeyError object>'
p23
sS'args'
p24
S"('results',)"
p25
sS'__reduce__'
p26
S'<built-in method __reduce__ of exceptions.KeyError object>'
p27
sS'__str__'
p28
S"<method-wrapper '__str__' of exceptions.KeyError object>"
p29
sS'__format__'
p30
S'<built-in method __format__ of exceptions.KeyError object>'
p31
sS'__getattribute__'
p32
S"<method-wrapper '__getattribute__' of exceptions.KeyError object>"
p33
sS'__class__'
p34
S"<type 'exceptions.KeyError'>"
p35
sS'__unicode__'
p36
S'<built-in method __unicode__ of exceptions.KeyError object>'
p37
sS'__delattr__'
p38
S"<method-wrapper '__delattr__' of exceptions.KeyError object>"
p39
sS'__subclasshook__'
p40
S'<built-in method __subclasshook__ of type object>'
p41
sS'__repr__'
p42
S"<method-wrapper '__repr__' of exceptions.KeyError object>"
p43
sS'__dict__'
p44
S'{}'
p45
sS'__sizeof__'
p46
S'<built-in method __sizeof__ of exceptions.KeyError object>'
p47
sS'__doc__'
p48
S"'Mapping key not found.'"
p49
sS'__init__'
p50
S"<method-wrapper '__init__' of exceptions.KeyError object>"
p51
sS'__new__'
p52
S'<built-in method __new__ of type object>'
p53
ssS'evalue'
p54
S"'results'"
p55
sS'request'
p56
cgluon.html
XML_unpickle
p57
(S'sO`\x00\x00<div><table><tr><td style="font-weight:bold;vertical-align:top;">ajax</td><td style="vertical-align:top;">:</td><td><div>False</div></td></tr><tr><td style="font-weight:bold;vertical-align:top;">application</td><td style="vertical-align:top;">:</td><td><div>pestlist</div></td></tr><tr><td style="font-weight:bold;vertical-align:top;">args</td><td style="vertical-align:top;">:</td><td><div><table></table></div></td></tr><tr><td style="font-weight:bold;vertical-align:top;">cid</td><td style="vertical-align:top;">:</td><td><div>None</div></td></tr><tr><td style="font-weight:bold;vertical-align:top;">client</td><td style="vertical-align:top;">:</td><td><div>127.0.0.1</div></td></tr><tr><td style="font-weight:bold;vertical-align:top;">controller</td><td style="vertical-align:top;">:</td><td><div>default</div></td></tr><tr><td style="font-weight:bold;vertical-align:top;">cookies</td><td style="vertical-align:top;">:</td><td><div><table><tr><td style="font-weight:bold;vertical-align:top;">csrftoken</td><td style="vertical-align:top;">:</td><td><div>BdTm5f24ojwsp4yL4jX8IsiJa0T76YbSARW2xjlSwGWw4A5cHgusNPqKYJHYqgnC<table><tr><td style="font-weight:bold;vertical-align:top;">comment</td><td style="vertical-align:top;">:</td><td><div></div></td></tr><tr><td style="font-weight:bold;vertical-align:top;">domain</td><td style="vertical-align:top;">:</td><td><div></div></td></tr><tr><td style="font-weight:bold;vertical-align:top;">expires</td><td style="vertical-align:top;">:</td><td><div></div></td></tr><tr><td style="font-weight:bold;vertical-align:top;">httponly</td><td style="vertical-align:top;">:</td><td><div></div></td></tr><tr><td style="font-weight:bold;vertical-align:top;">max-age</td><td style="vertical-align:top;">:</td><td><div></div></td></tr><tr><td style="font-weight:bold;vertical-align:top;">path</td><td style="vertical-align:top;">:</td><td><div></div></td></tr><tr><td style="font-weight:bold;vertical-align:top;">secure</td><td style="vertical-align:top;">:</td><td><div></div></td></tr><tr><td style="font-weight:bold;vertical-align:top;">version</td><td style="vertical-align:top;">:</td><td><div></div></td></tr></table></div></td></tr><tr><td style="font-weight:bold;vertical-align:top;">session_id_admin</td><td style="vertical-align:top;">:</td><td><div>127.0.0.1-afa1a4e9-d855-49ec-979a-5430bd891792<table><tr><td style="font-weight:bold;vertical-align:top;">comment</td><td style="vertical-align:top;">:</td><td><div></div></td></tr><tr><td style="font-weight:bold;vertical-align:top;">domain</td><td style="vertical-align:top;">:</td><td><div></div></td></tr><tr><td style="font-weight:bold;vertical-align:top;">expires</td><td style="vertical-align:top;">:</td><td><div></div></td></tr><tr><td style="font-weight:bold;vertical-align:top;">httponly</td><td style="vertical-align:top;">:</td><td><div></div></td></tr><tr><td style="font-weight:bold;vertical-align:top;">max-age</td><td style="vertical-align:top;">:</td><td><div></div></td></tr><tr><td style="font-weight:bold;vertical-align:top;">path</td><td style="vertical-align:top;">:</td><td><div></div></td></tr><tr><td style="font-weight:bold;vertical-align:top;">secure</td><td style="vertical-align:top;">:</td><td><div></div></td></tr><tr><td style="font-weight:bold;vertical-align:top;">version</td><td style="vertical-align:top;">:</td><td><div></div></td></tr></table></div></td></tr><tr><td style="font-weight:bold;vertical-align:top;">session_id_pestlist</td><td style="vertical-align:top;">:</td><td><div>127.0.0.1-97af47fe-0e57-4bfa-9ad2-4a5e6e0f0954<table><tr><td style="font-weight:bold;vertical-align:top;">comment</td><td style="vertical-align:top;">:</td><td><div></div></td></tr><tr><td style="font-weight:bold;vertical-align:top;">domain</td><td style="vertical-align:top;">:</td><td><div></div></td></tr><tr><td style="font-weight:bold;vertical-align:top;">expires</td><td style="vertical-align:top;">:</td><td><div></div></td></tr><tr><td style="font-weight:bold;vertical-align:top;">httponly</td><td style="vertical-align:top;">:</td><td><div></div></td></tr><tr><td style="font-weight:bold;vertical-align:top;">max-age</td><td style="vertical-align:top;">:</td><td><div></div></td></tr><tr><td style="font-weight:bold;vertical-align:top;">path</td><td style="vertical-align:top;">:</td><td><div></div></td></tr><tr><td style="font-weight:bold;vertical-align:top;">secure</td><td style="vertical-align:top;">:</td><td><div></div></td></tr><tr><td style="font-weight:bold;vertical-align:top;">version</td><td style="vertical-align:top;">:</td><td><div></div></td></tr></table></div></td></tr><tr><td style="font-weight:bold;vertical-align:top;">session_id_welcome</td><td style="vertical-align:top;">:</td><td><div>127.0.0.1-ad645668-251c-433a-9d99-2c20afa31114<table><tr><td style="font-weight:bold;vertical-align:top;">comment</td><td style="vertical-align:top;">:</td><td><div></div></td></tr><tr><td style="font-weight:bold;vertical-align:top;">domain</td><td style="vertical-align:top;">:</td><td><div></div></td></tr><tr><td style="font-weight:bold;vertical-align:top;">expires</td><td style="vertical-align:top;">:</td><td><div></div></td></tr><tr><td style="font-weight:bold;vertical-align:top;">httponly</td><td style="vertical-align:top;">:</td><td><div></div></td></tr><tr><td style="font-weight:bold;vertical-align:top;">max-age</td><td style="vertical-align:top;">:</td><td><div></div></td></tr><tr><td style="font-weight:bold;vertical-align:top;">path</td><td style="vertical-align:top;">:</td><td><div></div></td></tr><tr><td style="font-weight:bold;vertical-align:top;">secure</td><td style="vertical-align:top;">:</td><td><div></div></td></tr><tr><td style="font-weight:bold;vertical-align:top;">version</td><td style="vertical-align:top;">:</td><td><div></div></td></tr></table></div></td></tr></table></div></td></tr><tr><td style="font-weight:bold;vertical-align:top;">env</td><td style="vertical-align:top;">:</td><td><div><table><tr><td style="font-weight:bold;vertical-align:top;">HTTP_ACCEPT</td><td style="vertical-align:top;">:</td><td><div>text/html,application/xhtml+xml,application/xml;q=0.9,*/*;q=0.8</div></td></tr><tr><td style="font-weight:bold;vertical-align:top;">HTTP_ACCEPT_ENCODING</td><td style="vertical-align:top;">:</td><td><div>gzip, deflate</div></td></tr><tr><td style="font-weight:bold;vertical-align:top;">HTTP_ACCEPT_LANGUAGE</td><td style="vertical-align:top;">:</td><td><div>en-US,en;q=0.5</div></td></tr><tr><td style="font-weight:bold;vertical-align:top;">HTTP_CONNECTION</td><td style="vertical-align:top;">:</td><td><div>keep-alive</div></td></tr><tr><td style="font-weight:bold;vertical-align:top;">HTTP_COOKIE</td><td style="vertical-align:top;">:</td><td><div>csrftoken=BdTm5f24ojwsp4yL4jX8IsiJa0T76YbSARW2xjlSwGWw4A5cHgusNPqKYJHYqgnC; session_id_welcome=127.0.0.1-ad645668-251c-433a-9d99-2c20afa31114; session_id_pestlist=127.0.0.1-97af47fe-0e57-4bfa-9ad2-4a5e6e0f0954; session_id_admin=127.0.0.1-afa1a4e9-d855-49ec-979a-5430bd891792</div></td></tr><tr><td style="font-weight:bold;vertical-align:top;">HTTP_HOST</td><td style="vertical-align:top;">:</td><td><div>127.0.0.1:8000</div></td></tr><tr><td style="font-weight:bold;vertical-align:top;">HTTP_UPGRADE_INSECURE_REQUESTS</td><td style="vertical-align:top;">:</td><td><div>1</div></td></tr><tr><td style="font-weight:bold;vertical-align:top;">HTTP_USER_AGENT</td><td style="vertical-align:top;">:</td><td><div>Mozilla/5.0 (X11; Ubuntu; Linux x86_64; rv:51.0) Gecko/20100101 Firefox/51.0</div></td></tr><tr><td style="font-weight:bold;vertical-align:top;">PATH_INFO</td><td style="vertical-align:top;">:</td><td><div>/pestlist/default/get_supplied_names</div></td></tr><tr><td style="font-weight:bold;vertical-align:top;">QUERY_STRING</td><td style="vertical-align:top;">:</td><td><div></div></td></tr><tr><td style="font-weight:bold;vertical-align:top;">REMOTE_ADDR</td><td style="vertical-align:top;">:</td><td><div>127.0.0.1</div></td></tr><tr><td style="font-weight:bold;vertical-align:top;">REMOTE_PORT</td><td style="vertical-align:top;">:</td><td><div>42702</div></td></tr><tr><td style="font-weight:bold;vertical-align:top;">REQUEST_METHOD</td><td style="vertical-align:top;">:</td><td><div>GET</div></td></tr><tr><td style="font-weight:bold;vertical-align:top;">SCRIPT_NAME</td><td style="vertical-align:top;">:</td><td><div></div></td></tr><tr><td style="font-weight:bold;vertical-align:top;">SERVER_NAME</td><td style="vertical-align:top;">:</td><td><div>aubreymoore-Aspire-7750Z</div></td></tr><tr><td style="font-weight:bold;vertical-align:top;">SERVER_PORT</td><td style="vertical-align:top;">:</td><td><div>8000</div></td></tr><tr><td style="font-weight:bold;vertical-align:top;">SERVER_PROTOCOL</td><td style="vertical-align:top;">:</td><td><div>HTTP/1.1</div></td></tr><tr><td style="font-weight:bold;vertical-align:top;">SERVER_SOFTWARE</td><td style="vertical-align:top;">:</td><td><div>Rocket 1.2.6</div></td></tr><tr><td style="font-weight:bold;vertical-align:top;">app_folders</td><td style="vertical-align:top;">:</td><td><div>set([&#x27;/home/aubreymoore/Devel/playpen/web2py/applications/pestlist/&#x27;, &#x27;/home/aubreymoore/Devel/playpen/web2py/applications/welcome/&#x27;, &#x27;/home/aubreymoore/Devel/playpen/web2py/applications/admin/&#x27;])</div></td></tr><tr><td style="font-weight:bold;vertical-align:top;">applications_parent</td><td style="vertical-align:top;">:</td><td><div>/home/aubreymoore/Devel/playpen/web2py</div></td></tr><tr><td style="font-weight:bold;vertical-align:top;">cmd_args</td><td style="vertical-align:top;">:</td><td><div><table></table></div></td></tr><tr><td style="font-weight:bold;vertical-align:top;">cmd_options</td><td style="vertical-align:top;">:</td><td><div>&lt;Values at 0x7ff76a52b2d8: {&#x27;verbose&#x27;: False, &#x27;ip&#x27;: &#x27;127.0.0.1&#x27;, &#x27;debuglevel&#x27;: 30, &#x27;with_scheduler&#x27;: False, &#x27;shutdown_timeout&#x27;: 5, &#x27;taskbar&#x27;: False, &#x27;with_coverage&#x27;: False, &#x27;pid_filename&#x27;: &#x27;httpserver.pid&#x27;, &#x27;maxthreads&#x27;: None, &#x27;softcron&#x27;: False, &#x27;server_name&#x27;: &#x27;aubreymoore-Aspire-7750Z&#x27;, &#x27;bpython&#x27;: False, &#x27;nogui&#x27;: False, &#x27;port&#x27;: 8000, &#x27;print_errors&#x27;: False, &#x27;extcron&#x27;: False, &#x27;runcron&#x27;: False, &#x27;run_system_tests&#x27;: False, &#x27;test&#x27;: None, &#x27;folder&#x27;: &#x27;/home/aubreymoore/Devel/playpen/web2py&#x27;, &#x27;config&#x27;: &#x27;&#x27;, &#x27;minthreads&#x27;: None, &#x27;shell&#x27;: None, &#x27;run&#x27;: &#x27;&#x27;, &#x27;log_filename&#x27;: &#x27;httpserver.log&#x27;, &#x27;profiler_dir&#x27;: None, &#x27;args&#x27;: [&#x27;&#x27;], &#x27;socket_timeout&#x27;: 5, &#x27;ssl_ca_certificate&#x27;: None, &#x27;scheduler&#x27;: None, &#x27;interfaces&#x27;: None, &#x27;ssl_private_key&#x27;: &#x27;&#x27;, &#x27;gae&#x27;: None, &#x27;password&#x27;: &#x27;******&#x27;, &#x27;request_queue_size&#x27;: 5, &#x27;ssl_certificate&#x27;: &#x27;&#x27;, &#x27;cronjob&#x27;: False, &#x27;numthreads&#x27;: None, &#x27;quiet&#x27;: False, &#x27;import_models&#x27;: False, &#x27;timeout&#x27;: 10, &#x27;plain&#x27;: False, &#x27;nobanner&#x27;: False}&gt;</div></td></tr><tr><td style="font-weight:bold;vertical-align:top;">db_sessions</td><td style="vertical-align:top;">:</td><td><div>set([])</div></td></tr><tr><td style="font-weight:bold;vertical-align:top;">debugging</td><td style="vertical-align:top;">:</td><td><div>False</div></td></tr><tr><td style="font-weight:bold;vertical-align:top;">gluon_parent</td><td style="vertical-align:top;">:</td><td><div>/home/aubreymoore/Devel/playpen/web2py</div></td></tr><tr><td style="font-weight:bold;vertical-align:top;">http_accept</td><td style="vertical-align:top;">:</td><td><div>text/html,application/xhtml+xml,application/xml;q=0.9,*/*;q=0.8</div></td></tr><tr><td style="font-weight:bold;vertical-align:top;">http_accept_encoding</td><td style="vertical-align:top;">:</td><td><div>gzip, deflate</div></td></tr><tr><td style="font-weight:bold;vertical-align:top;">http_accept_language</td><td style="vertical-align:top;">:</td><td><div>en-US,en;q=0.5</div></td></tr><tr><td style="font-weight:bold;vertical-align:top;">http_connection</td><td style="vertical-align:top;">:</td><td><div>keep-alive</div></td></tr><tr><td style="font-weight:bold;vertical-align:top;">http_cookie</td><td style="vertical-align:top;">:</td><td><div>csrftoken=BdTm5f24ojwsp4yL4jX8IsiJa0T76YbSARW2xjlSwGWw4A5cHgusNPqKYJHYqgnC; session_id_welcome=127.0.0.1-ad645668-251c-433a-9d99-2c20afa31114; session_id_pestlist=127.0.0.1-97af47fe-0e57-4bfa-9ad2-4a5e6e0f0954; session_id_admin=127.0.0.1-afa1a4e9-d855-49ec-979a-5430bd891792</div></td></tr><tr><td style="font-weight:bold;vertical-align:top;">http_host</td><td style="vertical-align:top;">:</td><td><div>127.0.0.1:8000</div></td></tr><tr><td style="font-weight:bold;vertical-align:top;">http_upgrade_insecure_requests</td><td style="vertical-align:top;">:</td><td><div>1</div></td></tr><tr><td style="font-weight:bold;vertical-align:top;">http_user_agent</td><td style="vertical-align:top;">:</td><td><div>Mozilla/5.0 (X11; Ubuntu; Linux x86_64; rv:51.0) Gecko/20100101 Firefox/51.0</div></td></tr><tr><td style="font-weight:bold;vertical-align:top;">is_jython</td><td style="vertical-align:top;">:</td><td><div>False</div></td></tr><tr><td style="font-weight:bold;vertical-align:top;">is_pypy</td><td style="vertical-align:top;">:</td><td><div>False</div></td></tr><tr><td style="font-weight:bold;vertical-align:top;">is_source</td><td style="vertical-align:top;">:</td><td><div>True</div></td></tr><tr><td style="font-weight:bold;vertical-align:top;">local_hosts</td><td style="vertical-align:top;">:</td><td><div><table><tr><td><div>::1</div></td></tr><tr><td><div>127.0.1.1</div></td></tr><tr><td><div>::ffff:127.0.0.1</div></td></tr><tr><td><div>127.0.0.1</div></td></tr><tr><td><div>aubreymoore-Aspire-7750Z</div></td></tr></table></div></td></tr><tr><td style="font-weight:bold;vertical-align:top;">path_info</td><td style="vertical-align:top;">:</td><td><div>/pestlist/default/get_supplied_names</div></td></tr><tr><td style="font-weight:bold;vertical-align:top;">query_string</td><td style="vertical-align:top;">:</td><td><div></div></td></tr><tr><td style="font-weight:bold;vertical-align:top;">remote_addr</td><td style="vertical-align:top;">:</td><td><div>127.0.0.1</div></td></tr><tr><td style="font-weight:bold;vertical-align:top;">remote_port</td><td style="vertical-align:top;">:</td><td><div>42702</div></td></tr><tr><td style="font-weight:bold;vertical-align:top;">request_method</td><td style="vertical-align:top;">:</td><td><div>GET</div></td></tr><tr><td style="font-weight:bold;vertical-align:top;">request_uri</td><td style="vertical-align:top;">:</td><td><div>/pestlist/default/get_supplied_names</div></td></tr><tr><td style="font-weight:bold;vertical-align:top;">script_name</td><td style="vertical-align:top;">:</td><td><div></div></td></tr><tr><td style="font-weight:bold;vertical-align:top;">server_name</td><td style="vertical-align:top;">:</td><td><div>aubreymoore-Aspire-7750Z</div></td></tr><tr><td style="font-weight:bold;vertical-align:top;">server_port</td><td style="vertical-align:top;">:</td><td><div>8000</div></td></tr><tr><td style="font-weight:bold;vertical-align:top;">server_protocol</td><td style="vertical-align:top;">:</td><td><div>HTTP/1.1</div></td></tr><tr><td style="font-weight:bold;vertical-align:top;">server_software</td><td style="vertical-align:top;">:</td><td><div>Rocket 1.2.6</div></td></tr><tr><td style="font-weight:bold;vertical-align:top;">web2py_path</td><td style="vertical-align:top;">:</td><td><div>/home/aubreymoore/Devel/playpen/web2py</div></td></tr><tr><td style="font-weight:bold;vertical-align:top;">web2py_version</td><td style="vertical-align:top;">:</td><td><div>2.14.6-stable+timestamp.2016.05.10.00.21.47</div></td></tr><tr><td style="font-weight:bold;vertical-align:top;">wsgi.errors</td><td style="vertical-align:top;">:</td><td><div>&lt;open file &#x27;&lt;stderr&gt;&#x27;, mode &#x27;w&#x27; at 0x7ff772bcb1e0&gt;</div></td></tr><tr><td style="font-weight:bold;vertical-align:top;">wsgi.file_wrapper</td><td style="vertical-align:top;">:</td><td><div>&lt;class wsgiref.util.FileWrapper at 0x7ff76a5d4c18&gt;</div></td></tr><tr><td style="font-weight:bold;vertical-align:top;">wsgi.input</td><td style="vertical-align:top;">:</td><td><div>&lt;socket._fileobject object at 0x7ff71b56e850&gt;</div></td></tr><tr><td style="font-weight:bold;vertical-align:top;">wsgi.multiprocess</td><td style="vertical-align:top;">:</td><td><div>False</div></td></tr><tr><td style="font-weight:bold;vertical-align:top;">wsgi.multithread</td><td style="vertical-align:top;">:</td><td><div>True</div></td></tr><tr><td style="font-weight:bold;vertical-align:top;">wsgi.run_once</td><td style="vertical-align:top;">:</td><td><div>False</div></td></tr><tr><td style="font-weight:bold;vertical-align:top;">wsgi.url_scheme</td><td style="vertical-align:top;">:</td><td><div>http</div></td></tr><tr><td style="font-weight:bold;vertical-align:top;">wsgi.version</td><td style="vertical-align:top;">:</td><td><div><table><tr><td><div>1</div></td></tr><tr><td><div>0</div></td></tr></table></div></td></tr><tr><td style="font-weight:bold;vertical-align:top;">wsgi_errors</td><td style="vertical-align:top;">:</td><td><div>&lt;open file &#x27;&lt;stderr&gt;&#x27;, mode &#x27;w&#x27; at 0x7ff772bcb1e0&gt;</div></td></tr><tr><td style="font-weight:bold;vertical-align:top;">wsgi_file_wrapper</td><td style="vertical-align:top;">:</td><td><div>&lt;class wsgiref.util.FileWrapper at 0x7ff76a5d4c18&gt;</div></td></tr><tr><td style="font-weight:bold;vertical-align:top;">wsgi_input</td><td style="vertical-align:top;">:</td><td><div>&lt;socket._fileobject object at 0x7ff71b56e850&gt;</div></td></tr><tr><td style="font-weight:bold;vertical-align:top;">wsgi_multiprocess</td><td style="vertical-align:top;">:</td><td><div>False</div></td></tr><tr><td style="font-weight:bold;vertical-align:top;">wsgi_multithread</td><td style="vertical-align:top;">:</td><td><div>True</div></td></tr><tr><td style="font-weight:bold;vertical-align:top;">wsgi_run_once</td><td style="vertical-align:top;">:</td><td><div>False</div></td></tr><tr><td style="font-weight:bold;vertical-align:top;">wsgi_url_scheme</td><td style="vertical-align:top;">:</td><td><div>http</div></td></tr><tr><td style="font-weight:bold;vertical-align:top;">wsgi_version</td><td style="vertical-align:top;">:</td><td><div><table><tr><td><div>1</div></td></tr><tr><td><div>0</div></td></tr></table></div></td></tr></table></div></td></tr><tr><td style="font-weight:bold;vertical-align:top;">extension</td><td style="vertical-align:top;">:</td><td><div>html</div></td></tr><tr><td style="font-weight:bold;vertical-align:top;">folder</td><td style="vertical-align:top;">:</td><td><div>/home/aubreymoore/Devel/playpen/web2py/applications/pestlist/</div></td></tr><tr><td style="font-weight:bold;vertical-align:top;">function</td><td style="vertical-align:top;">:</td><td><div>get_supplied_names</div></td></tr><tr><td style="font-weight:bold;vertical-align:top;">global_settings</td><td style="vertical-align:top;">:</td><td><div><table><tr><td style="font-weight:bold;vertical-align:top;">app_folders</td><td style="vertical-align:top;">:</td><td><div>set([&#x27;/home/aubreymoore/Devel/playpen/web2py/applications/pestlist/&#x27;, &#x27;/home/aubreymoore/Devel/playpen/web2py/applications/welcome/&#x27;, &#x27;/home/aubreymoore/Devel/playpen/web2py/applications/admin/&#x27;])</div></td></tr><tr><td style="font-weight:bold;vertical-align:top;">applications_parent</td><td style="vertical-align:top;">:</td><td><div>/home/aubreymoore/Devel/playpen/web2py</div></td></tr><tr><td style="font-weight:bold;vertical-align:top;">cmd_args</td><td style="vertical-align:top;">:</td><td><div><table></table></div></td></tr><tr><td style="font-weight:bold;vertical-align:top;">cmd_options</td><td style="vertical-align:top;">:</td><td><div>&lt;Values at 0x7ff76a52b2d8: {&#x27;verbose&#x27;: False, &#x27;ip&#x27;: &#x27;127.0.0.1&#x27;, &#x27;debuglevel&#x27;: 30, &#x27;with_scheduler&#x27;: False, &#x27;shutdown_timeout&#x27;: 5, &#x27;taskbar&#x27;: False, &#x27;with_coverage&#x27;: False, &#x27;pid_filename&#x27;: &#x27;httpserver.pid&#x27;, &#x27;maxthreads&#x27;: None, &#x27;softcron&#x27;: False, &#x27;server_name&#x27;: &#x27;aubreymoore-Aspire-7750Z&#x27;, &#x27;bpython&#x27;: False, &#x27;nogui&#x27;: False, &#x27;port&#x27;: 8000, &#x27;print_errors&#x27;: False, &#x27;extcron&#x27;: False, &#x27;runcron&#x27;: False, &#x27;run_system_tests&#x27;: False, &#x27;test&#x27;: None, &#x27;folder&#x27;: &#x27;/home/aubreymoore/Devel/playpen/web2py&#x27;, &#x27;config&#x27;: &#x27;&#x27;, &#x27;minthreads&#x27;: None, &#x27;shell&#x27;: None, &#x27;run&#x27;: &#x27;&#x27;, &#x27;log_filename&#x27;: &#x27;httpserver.log&#x27;, &#x27;profiler_dir&#x27;: None, &#x27;args&#x27;: [&#x27;&#x27;], &#x27;socket_timeout&#x27;: 5, &#x27;ssl_ca_certificate&#x27;: None, &#x27;scheduler&#x27;: None, &#x27;interfaces&#x27;: None, &#x27;ssl_private_key&#x27;: &#x27;&#x27;, &#x27;gae&#x27;: None, &#x27;password&#x27;: &#x27;******&#x27;, &#x27;request_queue_size&#x27;: 5, &#x27;ssl_certificate&#x27;: &#x27;&#x27;, &#x27;cronjob&#x27;: False, &#x27;numthreads&#x27;: None, &#x27;quiet&#x27;: False, &#x27;import_models&#x27;: False, &#x27;timeout&#x27;: 10, &#x27;plain&#x27;: False, &#x27;nobanner&#x27;: False}&gt;</div></td></tr><tr><td style="font-weight:bold;vertical-align:top;">db_sessions</td><td style="vertical-align:top;">:</td><td><div>set([])</div></td></tr><tr><td style="font-weight:bold;vertical-align:top;">debugging</td><td style="vertical-align:top;">:</td><td><div>False</div></td></tr><tr><td style="font-weight:bold;vertical-align:top;">gluon_parent</td><td style="vertical-align:top;">:</td><td><div>/home/aubreymoore/Devel/playpen/web2py</div></td></tr><tr><td style="font-weight:bold;vertical-align:top;">is_jython</td><td style="vertical-align:top;">:</td><td><div>False</div></td></tr><tr><td style="font-weight:bold;vertical-align:top;">is_pypy</td><td style="vertical-align:top;">:</td><td><div>False</div></td></tr><tr><td style="font-weight:bold;vertical-align:top;">is_source</td><td style="vertical-align:top;">:</td><td><div>True</div></td></tr><tr><td style="font-weight:bold;vertical-align:top;">local_hosts</td><td style="vertical-align:top;">:</td><td><div><table><tr><td><div>::1</div></td></tr><tr><td><div>127.0.1.1</div></td></tr><tr><td><div>::ffff:127.0.0.1</div></td></tr><tr><td><div>127.0.0.1</div></td></tr><tr><td><div>aubreymoore-Aspire-7750Z</div></td></tr></table></div></td></tr><tr><td style="font-weight:bold;vertical-align:top;">web2py_version</td><td style="vertical-align:top;">:</td><td><div>2.14.6-stable+timestamp.2016.05.10.00.21.47</div></td></tr></table></div></td></tr><tr><td style="font-weight:bold;vertical-align:top;">is_https</td><td style="vertical-align:top;">:</td><td><div>False</div></td></tr><tr><td style="font-weight:bold;vertical-align:top;">is_local</td><td style="vertical-align:top;">:</td><td><div>True</div></td></tr><tr><td style="font-weight:bold;vertical-align:top;">is_restful</td><td style="vertical-align:top;">:</td><td><div>False</div></td></tr><tr><td style="font-weight:bold;vertical-align:top;">is_scheduler</td><td style="vertical-align:top;">:</td><td><div>False</div></td></tr><tr><td style="font-weight:bold;vertical-align:top;">is_shell</td><td style="vertical-align:top;">:</td><td><div>False</div></td></tr><tr><td style="font-weight:bold;vertical-align:top;">now</td><td style="vertical-align:top;">:</td><td><div>datetime.datetime(2017, 3, 5, 12, 0, 29, 27707)</div></td></tr><tr><td style="font-weight:bold;vertical-align:top;">raw_args</td><td style="vertical-align:top;">:</td><td><div></div></td></tr><tr><td style="font-weight:bold;vertical-align:top;">raw_extension</td><td style="vertical-align:top;">:</td><td><div>None</div></td></tr><tr><td style="font-weight:bold;vertical-align:top;">url</td><td style="vertical-align:top;">:</td><td><div>/pestlist/default/get_supplied_names</div></td></tr><tr><td style="font-weight:bold;vertical-align:top;">utcnow</td><td style="vertical-align:top;">:</td><td><div>datetime.datetime(2017, 3, 5, 2, 0, 29, 27750)</div></td></tr><tr><td style="font-weight:bold;vertical-align:top;">wsgi</td><td style="vertical-align:top;">:</td><td><div>&lt;gluon.main.LazyWSGI object at 0x7ff71a32dfd0&gt;</div></td></tr></table></div>'
tRp58
sS'frames'
p59
(lp60
(dp61
S'file'
p62
S'/home/aubreymoore/Devel/playpen/web2py/gluon/restricted.py'
p63
sS'dump'
p64
(dp65
S'environment'
p66
S"{'A': <class 'gluon.html.A'>, 'ANY_OF': <class 'gluon.validators.ANY_OF'>, 'ASSIGNJS': <function ASSIGNJS>, 'AppConfig': <function AppConfig>, 'Auth': <class 'gluon.tools.Auth'>, 'B': <class 'gluon.html.B'>, 'BEAUTIFY': <class 'gluon.html.BEAUTIFY'>, 'BODY': <class 'gluon.html.BODY'>, 'BR': <class 'gluon.html.BR'>, 'BUTTON': <class 'gluon.html.BUTTON'>, ...}"
p67
sS'ccode'
p68
S'<code object <module> at 0x7ff71a31f2b0, file "/...ations/pestlist/controllers/default.py", line 12>'
p69
ssS'lnum'
p70
I227
sS'lines'
p71
(dp72
I224
S'            ccode = code'
p73
sI225
S'        else:'
p74
sI226
S'            ccode = compile2(code, layer)'
p75
sI227
S'        exec ccode in environment'
p76
sI228
S'    except HTTP:'
p77
sI229
S'        raise'
p78
sI230
S'    except RestrictedError:'
p79
sI231
S'        # do not encapsulate (obfuscate) the original RestrictedError'
p80
sI222
S'    try:'
p81
sI223
S'        if isinstance(code, types.CodeType):'
p82
ssS'call'
p83
S"(code='# -*- coding: utf-8 -*-\\n# this file is released ...ponse._vars=response._caller(get_supplied_names)\\n', environment={'A': <class 'gluon.html.A'>, 'ANY_OF': <class 'gluon.validators.ANY_OF'>, 'ASSIGNJS': <function ASSIGNJS>, 'AppConfig': <function AppConfig>, 'Auth': <class 'gluon.tools.Auth'>, 'B': <class 'gluon.html.B'>, 'BEAUTIFY': <class 'gluon.html.BEAUTIFY'>, 'BODY': <class 'gluon.html.BODY'>, 'BR': <class 'gluon.html.BR'>, 'BUTTON': <class 'gluon.html.BUTTON'>, ...}, layer='/home/aubreymoore/Devel/playpen/web2py/applications/pestlist/controllers/default.py')"
p84
sS'func'
p85
S'restricted'
p86
sa(dp87
g62
S'/home/aubreymoore/Devel/playpen/web2py/applications/pestlist/controllers/default.py'
p88
sg64
(dp89
sg70
I302
sg71
(dp90
I291
S'#'
sI292
S'#'
sI293
S'# def call():'
p91
sI294
S'#     """'
p92
sI295
S'#     exposes services. for example:'
p93
sI296
S'#     http://..../[app]/default/call/jsonrpc'
p94
sI297
S'#     decorate with @services.jsonrpc the functions to expose'
p95
sI298
S'#     supports xml, json, xmlrpc, jsonrpc, amfrpc, rss, csv'
p96
sI299
S'#     """'
p97
sI300
S'#     return service()'
p98
ssg83
S'()'
p99
sg85
S'<module>'
p100
sa(dp101
g62
S'/home/aubreymoore/Devel/playpen/web2py/gluon/globals.py'
p102
sg64
(dp103
S'self'
p104
S'undefined'
p105
sS'f'
S'<function get_supplied_names>'
p106
ssg70
I417
sg71
(dp107
I416
S'        self._vars = None'
p108
sI417
S'        self._caller = lambda f: f()'
p109
sI418
S'        self._view_environment = None'
p110
sI419
S'        self._custom_commit = None'
p111
sI420
S'        self._custom_rollback = None'
p112
sI421
S"        self.generic_patterns = ['*']"
p113
sI412
S"        self.flash = ''            # used by the default view layout"
p114
sI413
S'        self.meta = Storage()      # used by web2py_ajax.html'
p115
sI414
S'        self.menu = []             # used by the default view layout'
p116
sI415
S'        self.files = []            # used by web2py_ajax.html'
p117
ssg83
S'(f=<function get_supplied_names>)'
p118
sg85
S'<lambda>'
p119
sa(dp120
g62
S'/home/aubreymoore/Devel/playpen/web2py/applications/pestlist/controllers/default.py'
p121
sg64
(dp122
S'].get'
p123
S'<built-in method get of dict object>'
p124
sS'row'
p125
S"{u'is_known_name': False, u'supplied_name_string': u'Avocado'}"
p126
ssg70
I92
sg71
(dp127
I96
S"    #         'supplied_name_string': row['supplied_name_string'],"
p128
sI87
S'    for row in mylist:'
p129
sI88
S'        # print(row)'
p130
sI89
S'        print'
p131
sI90
S"        print(row['supplied_name_string'])"
p132
sI91
S"        print(row['is_known_name'])"
p133
sI92
S"        print(row['results'][0].get('canonical_form',''))"
p134
sI93
S"        print(row['results'][0].get('taxon_id',''))"
p135
sI94
S'        # break'
p136
sI95
S'    #     mydict = {'
p137
ssg83
S'()'
p138
sg85
S'get_supplied_names'
p139
sasS'pyver'
p140
S'Python 2.7.13: /home/aubreymoore/anaconda3/envs/playpen/bin/python (prefix: /home/aubreymoore/anaconda3/envs/playpen)'
p141
sS'session'
p142
g57
(S's\x1a\x00\x00\x00<div><table></table></div>'
tRp143
sS'etype'
p144
S"<type 'exceptions.KeyError'>"
p145
sS'date'
p146
S'Sun Mar  5 12:00:29 2017'
p147
sS'response'
p148
g57
(S'sj>\x00\x00<div><table><tr><td style="font-weight:bold;vertical-align:top;">body</td><td style="vertical-align:top;">:</td><td><div>&lt;cStringIO.StringO object at 0x7ff71a7328f0&gt;</div></td></tr><tr><td style="font-weight:bold;vertical-align:top;">cookies</td><td style="vertical-align:top;">:</td><td><div><table><tr><td style="font-weight:bold;vertical-align:top;">session_id_pestlist</td><td style="vertical-align:top;">:</td><td><div>127.0.0.1-cef32fe8-a29e-40d7-b090-76411ad4a52e<table><tr><td style="font-weight:bold;vertical-align:top;">comment</td><td style="vertical-align:top;">:</td><td><div></div></td></tr><tr><td style="font-weight:bold;vertical-align:top;">domain</td><td style="vertical-align:top;">:</td><td><div></div></td></tr><tr><td style="font-weight:bold;vertical-align:top;">expires</td><td style="vertical-align:top;">:</td><td><div></div></td></tr><tr><td style="font-weight:bold;vertical-align:top;">httponly</td><td style="vertical-align:top;">:</td><td><div></div></td></tr><tr><td style="font-weight:bold;vertical-align:top;">max-age</td><td style="vertical-align:top;">:</td><td><div></div></td></tr><tr><td style="font-weight:bold;vertical-align:top;">path</td><td style="vertical-align:top;">:</td><td><div>/</div></td></tr><tr><td style="font-weight:bold;vertical-align:top;">secure</td><td style="vertical-align:top;">:</td><td><div></div></td></tr><tr><td style="font-weight:bold;vertical-align:top;">version</td><td style="vertical-align:top;">:</td><td><div></div></td></tr></table></div></td></tr></table></div></td></tr><tr><td style="font-weight:bold;vertical-align:top;">delimiters</td><td style="vertical-align:top;">:</td><td><div><table><tr><td><div>{{</div></td></tr><tr><td><div>}}</div></td></tr></table></div></td></tr><tr><td style="font-weight:bold;vertical-align:top;">files</td><td style="vertical-align:top;">:</td><td><div><table></table></div></td></tr><tr><td style="font-weight:bold;vertical-align:top;">flash</td><td style="vertical-align:top;">:</td><td><div></div></td></tr><tr><td style="font-weight:bold;vertical-align:top;">form_label_separator</td><td style="vertical-align:top;">:</td><td><div></div></td></tr><tr><td style="font-weight:bold;vertical-align:top;">formstyle</td><td style="vertical-align:top;">:</td><td><div>bootstrap3_inline</div></td></tr><tr><td style="font-weight:bold;vertical-align:top;">generic_patterns</td><td style="vertical-align:top;">:</td><td><div><table><tr><td><div>*</div></td></tr></table></div></td></tr><tr><td style="font-weight:bold;vertical-align:top;">google_analytics_id</td><td style="vertical-align:top;">:</td><td><div>None</div></td></tr><tr><td style="font-weight:bold;vertical-align:top;">headers</td><td style="vertical-align:top;">:</td><td><div><table><tr><td style="font-weight:bold;vertical-align:top;">X-Powered-By</td><td style="vertical-align:top;">:</td><td><div>web2py</div></td></tr></table></div></td></tr><tr><td style="font-weight:bold;vertical-align:top;">logo</td><td style="vertical-align:top;">:</td><td><div><a class="navbar-brand" href="http://www.web2py.com/" id="web2py-logo"><b>web<span>2</span>py</b>&trade;&nbsp;</a></div></td></tr><tr><td style="font-weight:bold;vertical-align:top;">menu</td><td style="vertical-align:top;">:</td><td><div><table><tr><td><div><table><tr><td><div>Home</div></td></tr><tr><td><div>False</div></td></tr><tr><td><div>/pestlist/default/index</div></td></tr><tr><td><div><table></table></div></td></tr></table></div></td></tr><tr><td><div><table><tr><td><div>My Sites</div></td></tr><tr><td><div>False</div></td></tr><tr><td><div>/admin/default/site</div></td></tr></table></div></td></tr><tr><td><div><table><tr><td><div>This App</div></td></tr><tr><td><div>False</div></td></tr><tr><td><div>#</div></td></tr><tr><td><div><table><tr><td><div><table><tr><td><div>Design</div></td></tr><tr><td><div>False</div></td></tr><tr><td><div>/admin/default/design/pestlist</div></td></tr></table></div></td></tr><tr><td><div><li class="divider"></li></div></td></tr><tr><td><div><table><tr><td><div>Controller</div></td></tr><tr><td><div>False</div></td></tr><tr><td><div>/admin/default/edit/pestlist/controllers/default.py</div></td></tr></table></div></td></tr><tr><td><div><table><tr><td><div>View</div></td></tr><tr><td><div>False</div></td></tr><tr><td><div>/admin/default/edit/pestlist/views/default/get_supplied_names.html</div></td></tr></table></div></td></tr><tr><td><div><table><tr><td><div>DB Model</div></td></tr><tr><td><div>False</div></td></tr><tr><td><div>/admin/default/edit/pestlist/models/db.py</div></td></tr></table></div></td></tr><tr><td><div><table><tr><td><div>Menu Model</div></td></tr><tr><td><div>False</div></td></tr><tr><td><div>/admin/default/edit/pestlist/models/menu.py</div></td></tr></table></div></td></tr><tr><td><div><table><tr><td><div>Config.ini</div></td></tr><tr><td><div>False</div></td></tr><tr><td><div>/admin/default/edit/pestlist/private/appconfig.ini</div></td></tr></table></div></td></tr><tr><td><div><table><tr><td><div>Layout</div></td></tr><tr><td><div>False</div></td></tr><tr><td><div>/admin/default/edit/pestlist/views/layout.html</div></td></tr></table></div></td></tr><tr><td><div><table><tr><td><div>Stylesheet</div></td></tr><tr><td><div>False</div></td></tr><tr><td><div>/admin/default/edit/pestlist/static/css/web2py-bootstrap3.css</div></td></tr></table></div></td></tr><tr><td><div><table><tr><td><div>Database</div></td></tr><tr><td><div>False</div></td></tr><tr><td><div>/pestlist/appadmin/index</div></td></tr></table></div></td></tr><tr><td><div><table><tr><td><div>Errors</div></td></tr><tr><td><div>False</div></td></tr><tr><td><div>/admin/default/errors/pestlist</div></td></tr></table></div></td></tr><tr><td><div><table><tr><td><div>About</div></td></tr><tr><td><div>False</div></td></tr><tr><td><div>/admin/default/about/pestlist</div></td></tr></table></div></td></tr></table></div></td></tr></table></div></td></tr><tr><td><div><table><tr><td><div>web2py.com</div></td></tr><tr><td><div>False</div></td></tr><tr><td><div>#</div></td></tr><tr><td><div><table><tr><td><div><table><tr><td><div>Download</div></td></tr><tr><td><div>False</div></td></tr><tr><td><div>http://www.web2py.com/examples/default/download</div></td></tr></table></div></td></tr><tr><td><div><table><tr><td><div>Support</div></td></tr><tr><td><div>False</div></td></tr><tr><td><div>http://www.web2py.com/examples/default/support</div></td></tr></table></div></td></tr><tr><td><div><table><tr><td><div>Demo</div></td></tr><tr><td><div>False</div></td></tr><tr><td><div>http://web2py.com/demo_admin</div></td></tr></table></div></td></tr><tr><td><div><table><tr><td><div>Quick Examples</div></td></tr><tr><td><div>False</div></td></tr><tr><td><div>http://web2py.com/examples/default/examples</div></td></tr></table></div></td></tr><tr><td><div><table><tr><td><div>FAQ</div></td></tr><tr><td><div>False</div></td></tr><tr><td><div>http://web2py.com/AlterEgo</div></td></tr></table></div></td></tr><tr><td><div><table><tr><td><div>Videos</div></td></tr><tr><td><div>False</div></td></tr><tr><td><div>http://www.web2py.com/examples/default/videos/</div></td></tr></table></div></td></tr><tr><td><div><table><tr><td><div>Free Applications</div></td></tr><tr><td><div>False</div></td></tr><tr><td><div>http://web2py.com/appliances</div></td></tr></table></div></td></tr><tr><td><div><table><tr><td><div>Plugins</div></td></tr><tr><td><div>False</div></td></tr><tr><td><div>http://web2py.com/plugins</div></td></tr></table></div></td></tr><tr><td><div><table><tr><td><div>Recipes</div></td></tr><tr><td><div>False</div></td></tr><tr><td><div>http://web2pyslices.com/</div></td></tr></table></div></td></tr></table></div></td></tr></table></div></td></tr><tr><td><div><table><tr><td><div>Documentation</div></td></tr><tr><td><div>False</div></td></tr><tr><td><div>#</div></td></tr><tr><td><div><table><tr><td><div><table><tr><td><div>Online book</div></td></tr><tr><td><div>False</div></td></tr><tr><td><div>http://www.web2py.com/book</div></td></tr></table></div></td></tr><tr><td><div><li class="divider"></li></div></td></tr><tr><td><div><table><tr><td><div>Preface</div></td></tr><tr><td><div>False</div></td></tr><tr><td><div>http://www.web2py.com/book/default/chapter/00</div></td></tr></table></div></td></tr><tr><td><div><table><tr><td><div>Introduction</div></td></tr><tr><td><div>False</div></td></tr><tr><td><div>http://www.web2py.com/book/default/chapter/01</div></td></tr></table></div></td></tr><tr><td><div><table><tr><td><div>Python</div></td></tr><tr><td><div>False</div></td></tr><tr><td><div>http://www.web2py.com/book/default/chapter/02</div></td></tr></table></div></td></tr><tr><td><div><table><tr><td><div>Overview</div></td></tr><tr><td><div>False</div></td></tr><tr><td><div>http://www.web2py.com/book/default/chapter/03</div></td></tr></table></div></td></tr><tr><td><div><table><tr><td><div>The Core</div></td></tr><tr><td><div>False</div></td></tr><tr><td><div>http://www.web2py.com/book/default/chapter/04</div></td></tr></table></div></td></tr><tr><td><div><table><tr><td><div>The Views</div></td></tr><tr><td><div>False</div></td></tr><tr><td><div>http://www.web2py.com/book/default/chapter/05</div></td></tr></table></div></td></tr><tr><td><div><table><tr><td><div>Database</div></td></tr><tr><td><div>False</div></td></tr><tr><td><div>http://www.web2py.com/book/default/chapter/06</div></td></tr></table></div></td></tr><tr><td><div><table><tr><td><div>Forms and Validators</div></td></tr><tr><td><div>False</div></td></tr><tr><td><div>http://www.web2py.com/book/default/chapter/07</div></td></tr></table></div></td></tr><tr><td><div><table><tr><td><div>Email and SMS</div></td></tr><tr><td><div>False</div></td></tr><tr><td><div>http://www.web2py.com/book/default/chapter/08</div></td></tr></table></div></td></tr><tr><td><div><table><tr><td><div>Access Control</div></td></tr><tr><td><div>False</div></td></tr><tr><td><div>http://www.web2py.com/book/default/chapter/09</div></td></tr></table></div></td></tr><tr><td><div><table><tr><td><div>Services</div></td></tr><tr><td><div>False</div></td></tr><tr><td><div>http://www.web2py.com/book/default/chapter/10</div></td></tr></table></div></td></tr><tr><td><div><table><tr><td><div>Ajax Recipes</div></td></tr><tr><td><div>False</div></td></tr><tr><td><div>http://www.web2py.com/book/default/chapter/11</div></td></tr></table></div></td></tr><tr><td><div><table><tr><td><div>Components and Plugins</div></td></tr><tr><td><div>False</div></td></tr><tr><td><div>http://www.web2py.com/book/default/chapter/12</div></td></tr></table></div></td></tr><tr><td><div><table><tr><td><div>Deployment Recipes</div></td></tr><tr><td><div>False</div></td></tr><tr><td><div>http://www.web2py.com/book/default/chapter/13</div></td></tr></table></div></td></tr><tr><td><div><table><tr><td><div>Other Recipes</div></td></tr><tr><td><div>False</div></td></tr><tr><td><div>http://www.web2py.com/book/default/chapter/14</div></td></tr></table></div></td></tr><tr><td><div><table><tr><td><div>Helping web2py</div></td></tr><tr><td><div>False</div></td></tr><tr><td><div>http://www.web2py.com/book/default/chapter/15</div></td></tr></table></div></td></tr><tr><td><div><table><tr><td><div>Buy web2py\'s book</div></td></tr><tr><td><div>False</div></td></tr><tr><td><div>http://stores.lulu.com/web2py</div></td></tr></table></div></td></tr></table></div></td></tr></table></div></td></tr><tr><td><div><table><tr><td><div>Community</div></td></tr><tr><td><div>False</div></td></tr><tr><td><div>None</div></td></tr><tr><td><div><table><tr><td><div><table><tr><td><div>Groups</div></td></tr><tr><td><div>False</div></td></tr><tr><td><div>http://www.web2py.com/examples/default/usergroups</div></td></tr></table></div></td></tr><tr><td><div><table><tr><td><div>Twitter</div></td></tr><tr><td><div>False</div></td></tr><tr><td><div>http://twitter.com/web2py</div></td></tr></table></div></td></tr><tr><td><div><table><tr><td><div>Live Chat</div></td></tr><tr><td><div>False</div></td></tr><tr><td><div>http://webchat.freenode.net/?channels=web2py</div></td></tr></table></div></td></tr></table></div></td></tr></table></div></td></tr></table></div></td></tr><tr><td style="font-weight:bold;vertical-align:top;">meta</td><td style="vertical-align:top;">:</td><td><div><table><tr><td style="font-weight:bold;vertical-align:top;">author</td><td style="vertical-align:top;">:</td><td><div>Your Name &lt;you@example.com&gt;</div></td></tr><tr><td style="font-weight:bold;vertical-align:top;">description</td><td style="vertical-align:top;">:</td><td><div>a cool new app</div></td></tr><tr><td style="font-weight:bold;vertical-align:top;">generator</td><td style="vertical-align:top;">:</td><td><div>Web2py Web Framework</div></td></tr><tr><td style="font-weight:bold;vertical-align:top;">keywords</td><td style="vertical-align:top;">:</td><td><div><table><tr><td><div>web2py</div></td></tr><tr><td><div>python</div></td></tr><tr><td><div>framework</div></td></tr></table></div></td></tr></table></div></td></tr><tr><td style="font-weight:bold;vertical-align:top;">models_to_run</td><td style="vertical-align:top;">:</td><td><div><table><tr><td><div>^\\w+\\.py$</div></td></tr><tr><td><div>^default/\\w+\\.py$</div></td></tr><tr><td><div>^default/get_supplied_names/\\w+\\.py$</div></td></tr></table></div></td></tr><tr><td style="font-weight:bold;vertical-align:top;">postprocessing</td><td style="vertical-align:top;">:</td><td><div><table></table></div></td></tr><tr><td style="font-weight:bold;vertical-align:top;">session_client</td><td style="vertical-align:top;">:</td><td><div>127.0.0.1</div></td></tr><tr><td style="font-weight:bold;vertical-align:top;">session_cookie_compression_level</td><td style="vertical-align:top;">:</td><td><div>None</div></td></tr><tr><td style="font-weight:bold;vertical-align:top;">session_cookie_expires</td><td style="vertical-align:top;">:</td><td><div>None</div></td></tr><tr><td style="font-weight:bold;vertical-align:top;">session_data_name</td><td style="vertical-align:top;">:</td><td><div>session_data_pestlist</div></td></tr><tr><td style="font-weight:bold;vertical-align:top;">session_file</td><td style="vertical-align:top;">:</td><td><div>None</div></td></tr><tr><td style="font-weight:bold;vertical-align:top;">session_filename</td><td style="vertical-align:top;">:</td><td><div>/home/aubreymoore/Devel/playpen/web2py/applications/pestlist/sessions/127.0.0.1-cef32fe8-a29e-40d7-b090-76411ad4a52e</div></td></tr><tr><td style="font-weight:bold;vertical-align:top;">session_hash</td><td style="vertical-align:top;">:</td><td><div>c0762cbf4baf7f9af97c051e7fcb8083</div></td></tr><tr><td style="font-weight:bold;vertical-align:top;">session_id</td><td style="vertical-align:top;">:</td><td><div>127.0.0.1-cef32fe8-a29e-40d7-b090-76411ad4a52e</div></td></tr><tr><td style="font-weight:bold;vertical-align:top;">session_id_name</td><td style="vertical-align:top;">:</td><td><div>session_id_pestlist</div></td></tr><tr><td style="font-weight:bold;vertical-align:top;">session_masterapp</td><td style="vertical-align:top;">:</td><td><div>pestlist</div></td></tr><tr><td style="font-weight:bold;vertical-align:top;">session_new</td><td style="vertical-align:top;">:</td><td><div>True</div></td></tr><tr><td style="font-weight:bold;vertical-align:top;">session_storage_type</td><td style="vertical-align:top;">:</td><td><div>file</div></td></tr><tr><td style="font-weight:bold;vertical-align:top;">status</td><td style="vertical-align:top;">:</td><td><div>200</div></td></tr><tr><td style="font-weight:bold;vertical-align:top;">subtitle</td><td style="vertical-align:top;">:</td><td><div></div></td></tr><tr><td style="font-weight:bold;vertical-align:top;">title</td><td style="vertical-align:top;">:</td><td><div>Pestlist</div></td></tr><tr><td style="font-weight:bold;vertical-align:top;">view</td><td style="vertical-align:top;">:</td><td><div>default/get_supplied_names.html</div></td></tr></table></div>'
tRp149
sS'locals'
p150
(dp151
S'mylist'
p152
S"[{u'is_known_name': True, u'results': [{u'canonical_form': u'Agave sisalana', u'classification_path': u'Plantae|Tracheophyta|Liliopsida|Asparagales|Asparagaceae|Agave|Agave sisalana', u'classification_path_ids': u'6|7707728|196|1169|7683|2766430|2766636', u'classification_path_ranks': u'kingdom|phylum|class|order|family|genus|species', u'data_source_id': 11, u'data_source_title': u'GBIF Backbone Taxonomy', u'edit_distance': 0, u'gni_uuid': u'b2a8b282-f846-557e-8f96-aaa26d068cb5', u'imported_at': u'2016-11-13T19:37:29Z', u'match_type': 2, ...}, {u'canonical_form': u'Agave sisalana', u'classification_path': u'Plantae|Tracheophyta|Liliopsida|Asparagales|Asparagaceae|Agave|Agave sisalana', u'classification_path_ids': u'6|7707728|196|1169|7683|2766430|8123118', u'classification_path_ranks': u'kingdom|phylum|class|order|family|genus|species', u'data_source_id': 11, u'data_source_title': u'GBIF Backbone Taxonomy', u'edit_distance': 0, u'gni_uuid': u'c2deb93a-de0e-58cf-bfeb-6fd196652038', u'imported_at': u'2016-11-13T19:37:47Z', u'match_type': 2, ...}], u'supplied_name_string': u'Agave sisalana'}, {u'is_known_name': False, u'supplied_name_string': u'Avocado'}, {u'is_known_name': True, u'results': [{u'canonical_form': u'Persea americana', u'classification_path': u'Plantae|Tracheophyta|Magnoliopsida|Laurales|Lauraceae|Persea|Persea americana', u'classification_path_ids': u'6|7707728|220|407|6688|3034041|3034046', u'classification_path_ranks': u'kingdom|phylum|class|order|family|genus|species', u'data_source_id': 11, u'data_source_title': u'GBIF Backbone Taxonomy', u'edit_distance': 0, u'gni_uuid': u'e9a1bdf0-5723-5e79-af71-d0624abe84bf', u'imported_at': u'2016-11-13T20:45:44Z', u'match_type': 2, ...}], u'supplied_name_string': u'Persea americana'}, {u'is_known_name': True, u'results': [{u'canonical_form': u'Bambusa', u'classification_path': u'Plantae|Tracheophyta|Liliopsida|Poales|Poaceae|Bambusa', u'classification_path_ids': u'6|7707728|196|1369|3073|2705751', u'classification_path_ranks': u'kingdom|phylum|class|order|family|genus', u'data_source_id': 11, u'data_source_title': u'GBIF Backbone Taxonomy', u'edit_distance': 0, u'gni_uuid': u'a925e219-ed86-5bc4-9da8-1c87a47fe6ee', u'imported_at': u'2016-11-13T19:33:26Z', u'match_type': 2, ...}, {u'canonical_form': u'Bambusa', u'classification_path': u'Plantae|Tracheophyta|Liliopsida|Poales|Poaceae|Bambusa', u'classification_path_ids': u'6|7707728|196|1369|3073|7967307', u'classification_path_ranks': u'kingdom|phylum|class|order|family|genus', u'data_source_id': 11, u'data_source_title': u'GBIF Backbone Taxonomy', u'edit_distance': 0, u'gni_uuid': u'5ed044e4-0046-594e-ac8c-00c89290eda5', u'imported_at': u'2016-11-13T19:33:45Z', u'match_type': 2, ...}], u'supplied_name_string': u'Bambusa'}, {u'is_known_name': True, u'results': [{u'canonical_form': u'Phaseolus', u'classification_path': u'Plantae|Tracheophyta|Magnoliopsida|Fabales|Fabaceae|Phaseolus', u'classification_path_ids': u'6|7707728|220|1370|5386|2947798', u'classification_path_ranks': u'kingdom|phylum|class|order|family|genus', u'data_source_id': 11, u'data_source_title': u'GBIF Backbone Taxonomy', u'edit_distance': 0, u'gni_uuid': u'2ce3b469-d181-522d-ab58-ed179758355e', u'imported_at': u'2016-11-13T21:03:10Z', u'match_type': 2, ...}, {u'canonical_form': u'Phaseolus', u'classification_path': u'Animalia|Mollusca|Bivalvia|Nuculanoida|Phaseolidae|Phaseolus', u'classification_path_ids': u'1|52|137|8105257|4587869|2285633', u'classification_path_ranks': u'kingdom|phylum|class|order|family|genus', u'data_source_id': 11, u'data_source_title': u'GBIF Backbone Taxonomy', u'edit_distance': 0, u'gni_uuid': u'ab46891a-e21b-566f-80c2-5acd9636bc54', u'imported_at': u'2016-11-13T20:23:50Z', u'match_type': 2, ...}, {u'canonical_form': u'Phaseolus', u'classification_path': u'Animalia|Receptaculitidae|Phaseolus', u'classification_path_ids': u'1|3251834|3251836', u'classification_path_ranks': u'kingdom|family|genus', u'data_source_id': 11, u'data_source_title': u'GBIF Backbone Taxonomy', u'edit_distance': 0, u'gni_uuid': u'a1cd868c-e6d1-5281-8bf9-d520d3234bb0', u'imported_at': u'2016-11-13T22:35:03Z', u'match_type': 2, ...}], u'supplied_name_string': u'Phaseolus'}, {u'is_known_name': True, u'results': [{u'canonical_form': u'Cynodon', u'classification_path': u'Plantae|Tracheophyta|Liliopsida|Poales|Poaceae|Cynodon', u'classification_path_ids': u'6|7707728|196|1369|3073|2703525', u'classification_path_ranks': u'kingdom|phylum|class|order|family|genus', u'data_source_id': 11, u'data_source_title': u'GBIF Backbone Taxonomy', u'edit_distance': 0, u'gni_uuid': u'16c709c2-b3ab-5e05-8ecc-2b5045e65c56', u'imported_at': u'2016-11-13T19:33:29Z', u'match_type': 2, ...}, {u'canonical_form': u'Cynodon', u'classification_path': u'Animalia|Chordata|Mammalia|Carnivora|Ursidae|Amphicynodon', u'classification_path_ids': u'1|44|359|732|9681|3240118', u'classification_path_ranks': u'kingdom|phylum|class|order|family|genus', u'current_name_string': u'Amphicynodon Filhol, 1882', u'current_taxon_id': u'3240118', u'data_source_id': 11, u'data_source_title': u'GBIF Backbone Taxonomy', u'edit_distance': 0, u'gni_uuid': u'cae7aa87-4ef0-5b65-b278-df8c7d12e524', ...}, {u'canonical_form': u'Cynodon', u'classification_path': u'Plantae|Bryophyta|Bryopsida|Dicranales|Ditrichaceae|Cynodon', u'classification_path_ids': u'6|35|327|1335|8743|3230059', u'classification_path_ranks': u'kingdom|phylum|class|order|family|genus', u'data_source_id': 11, u'data_source_title': u'GBIF Backbone Taxonomy', u'edit_distance': 0, u'gni_uuid': u'b687b45d-8377-5797-b36c-f3a6acd267a9', u'imported_at': u'2016-11-13T20:08:08Z', u'match_type': 2, ...}, {u'canonical_form': u'Cynodon', u'classification_path': u'Animalia|Chordata|Cynodon', u'classification_path_ids': u'1|44|7237238', u'classification_path_ranks': u'kingdom|phylum|genus', u'data_source_id': 11, u'data_source_title': u'GBIF Backbone Taxonomy', u'edit_distance': 0, u'gni_uuid': u'67f171d7-373a-5727-b976-8f59022c9c54', u'imported_at': u'2016-11-13T22:32:24Z', u'match_type': 2, ...}, {u'canonical_form': u'Cynodon', u'classification_path': u'Animalia|Chordata|Actinopterygii|Characiformes|Cynodontidae|Cynodon', u'classification_path_ids': u'1|44|204|537|2978|2352261', u'classification_path_ranks': u'kingdom|phylum|class|order|family|genus', u'data_source_id': 11, u'data_source_title': u'GBIF Backbone Taxonomy', u'edit_distance': 0, u'gni_uuid': u'83582b99-67c7-50b5-98a5-6a02acddf078', u'imported_at': u'2016-11-13T19:49:50Z', u'match_type': 2, ...}], u'supplied_name_string': u'Cynodon'}, {u'is_known_name': True, u'results': [{u'canonical_form': u'Areca', u'classification_path': u'Plantae|Tracheophyta|Liliopsida|Arecales|Arecaceae|Areca', u'classification_path_ids': u'6|7707728|196|552|7681|2736518', u'classification_path_ranks': u'kingdom|phylum|class|order|family|genus', u'data_source_id': 11, u'data_source_title': u'GBIF Backbone Taxonomy', u'edit_distance': 0, u'gni_uuid': u'1b54e274-be21-5fbc-a4df-1feae31e8a6e', u'imported_at': u'2016-11-13T19:01:05Z', u'match_type': 2, ...}], u'supplied_name_string': u'Areca'}, {u'is_known_name': True, u'results': [{u'canonical_form': u'Artocarpus', u'classification_path': u'Plantae|Tracheophyta|Magnoliopsida|Rosales|Moraceae|Artocarpus', u'classification_path_ids': u'6|7707728|220|691|6640|2984563', u'classification_path_ranks': u'kingdom|phylum|class|order|family|genus', u'data_source_id': 11, u'data_source_title': u'GBIF Backbone Taxonomy', u'edit_distance': 0, u'gni_uuid': u'1eefda1f-04af-53be-8140-a7b4f0a12da9', u'imported_at': u'2016-11-13T21:26:25Z', u'match_type': 2, ...}], u'supplied_name_string': u'Artocarpus'}, {u'is_known_name': True, u'results': [{u'canonical_form': u'Brassica', u'classification_path': u'Plantae|Tracheophyta|Magnoliopsida|Brassicales|Brassicaceae|Brassica', u'classification_path_ids': u'6|7707728|220|7225535|3112|3042506', u'classification_path_ranks': u'kingdom|phylum|class|order|family|genus', u'data_source_id': 11, u'data_source_title': u'GBIF Backbone Taxonomy', u'edit_distance': 0, u'gni_uuid': u'd33eb444-d729-5b73-abc2-5c87550cd617', u'imported_at': u'2016-11-13T20:10:49Z', u'match_type': 2, ...}], u'supplied_name_string': u'Brassica'}, {u'is_known_name': True, u'results': [{u'canonical_form': u'Manihot esculenta', u'classification_path': u'Plantae|Tracheophyta|Magnoliopsida|Malpighiales|Euphorbiaceae|Manihot|Manihot esculenta', u'classification_path_ids': u'6|7707728|220|1414|4691|3060685|3060998', u'classification_path_ranks': u'kingdom|phylum|class|order|family|genus|species', u'data_source_id': 11, u'data_source_title': u'GBIF Backbone Taxonomy', u'edit_distance': 0, u'gni_uuid': u'aefc2890-bd60-5ca0-966c-e8a587b430bc', u'imported_at': u'2016-11-13T20:08:09Z', u'match_type': 2, ...}], u'supplied_name_string': u'Manihot esculenta'}, {u'is_known_name': True, u'results': [{u'canonical_form': u'Theobroma cacao', u'classification_path': u'Plantae|Tracheophyta|Magnoliopsida|Malvales|Malvaceae|Theobroma|Theobroma cacao', u'classification_path_ids': u'6|7707728|220|941|6685|2984934|3152205', u'classification_path_ranks': u'kingdom|phylum|class|order|family|genus|species', u'data_source_id': 11, u'data_source_title': u'GBIF Backbone Taxonomy', u'edit_distance': 0, u'gni_uuid': u'8baed9bd-9b5c-59f6-b582-fb828c523d07', u'imported_at': u'2016-11-13T21:13:24Z', u'match_type': 2, ...}, {u'canonical_form': u'Theobroma cacao', u'classification_path': u'Plantae|Tracheophyta|Magnoliopsida|Malvales|Malvaceae|Theobroma|Theobroma cacao|Theobroma cacao', u'classification_path_ids': u'6|7707728|220|941|6685|2984934|3152205|8447802', u'classification_path_ranks': u'kingdom|phylum|class|order|family|genus|species|form', u'data_source_id': 11, u'data_source_title': u'GBIF Backbone Taxonomy', u'edit_distance': 0, u'gni_uuid': u'3197c607-a47c-5b21-aa8c-9313944f8d12', u'imported_at': u'2016-11-13T21:13:24Z', u'match_type': 2, ...}], u'supplied_name_string': u'Theobroma cacao'}, {u'is_known_name': True, u'results': [{u'canonical_form': u'Cocos nucifera', u'classification_path': u'Plantae|Tracheophyta|Liliopsida|Arecales|Arecaceae|Cocos|Cocos nucifera', u'classification_path_ids': u'6|7707728|196|552|7681|2735116|2735117', u'classification_path_ranks': u'kingdom|phylum|class|order|family|genus|species', u'data_source_id': 11, u'data_source_title': u'GBIF Backbone Taxonomy', u'edit_distance': 0, u'gni_uuid': u'127addc3-adb6-570d-8858-fa2b58c97d27', u'imported_at': u'2016-11-13T21:43:28Z', u'match_type': 2, ...}], u'supplied_name_string': u'Cocos nucifera'}, {u'is_known_name': True, u'results': [{u'canonical_form': u'Coffea', u'classification_path': u'Plantae|Tracheophyta|Magnoliopsida|Gentianales|Rubiaceae|Coffea', u'classification_path_ids': u'6|7707728|220|412|8798|2895315', u'classification_path_ranks': u'kingdom|phylum|class|order|family|genus', u'data_source_id': 11, u'data_source_title': u'GBIF Backbone Taxonomy', u'edit_distance': 0, u'gni_uuid': u'c50975fd-6374-5028-a65c-5e21e2b19b53', u'imported_at': u'2016-11-13T22:34:45Z', u'match_type': 2, ...}], u'supplied_name_string': u'Coffea'}, {u'is_known_name': True, u'results': [{u'canonical_form': u'Gossypium', u'classification_path': u'Plantae|Tracheophyta|Magnoliopsida|Malvales|Malvaceae|Gossypium', u'classification_path_ids': u'6|7707728|220|941|6685|3152652', u'classification_path_ranks': u'kingdom|phylum|class|order|family|genus', u'data_source_id': 11, u'data_source_title': u'GBIF Backbone Taxonomy', u'edit_distance': 0, u'gni_uuid': u'6cfd5875-e46a-5a5c-8e76-529dfe577e0f', u'imported_at': u'2016-11-13T21:22:10Z', u'match_type': 2, ...}], u'supplied_name_string': u'Gossypium'}, {u'is_known_name': True, u'results': [{u'canonical_form': u'Codiaeum variegatum', u'classification_path': u'Plantae|Tracheophyta|Magnoliopsida|Malpighiales|Euphorbiaceae|Codiaeum|Codiaeum variegatum', u'classification_path_ids': u'6|7707728|220|1414|4691|3071464|3071476', u'classification_path_ranks': u'kingdom|phylum|class|order|family|genus|species', u'data_source_id': 11, u'data_source_title': u'GBIF Backbone Taxonomy', u'edit_distance': 0, u'gni_uuid': u'9a916565-dd32-5cd7-9cfb-3865a82bc3b8', u'imported_at': u'2016-11-13T20:12:48Z', u'match_type': 2, ...}, {u'canonical_form': u'Codiaeum variegatum', u'classification_path': u'Plantae|Tracheophyta|Magnoliopsida|Malpighiales|Euphorbiaceae|Codiaeum|Codiaeum variegatum', u'classification_path_ids': u'6|7707728|220|1414|4691|3071464|7754956', u'classification_path_ranks': u'kingdom|phylum|class|order|family|genus|species', u'data_source_id': 11, u'data_source_title': u'GBIF Backbone Taxonomy', u'edit_distance': 0, u'gni_uuid': u'ff5d9c21-4871-5707-b64c-d2a2e241cec9', u'imported_at': u'2016-11-13T22:58:25Z', u'match_type': 2, ...}, {u'canonical_form': u'Codiaeum variegatum', u'classification_path': u'Plantae|Tracheophyta|Magnoliopsida|Malpighiales|Euphorbiaceae|Codiaeum|Codiaeum variegatum', u'classification_path_ids': u'6|7707728|220|1414|4691|3071464|3071476', u'classification_path_ranks': u'kingdom|phylum|class|order|family|genus|species', u'current_name_string': u'Codiaeum variegatum (L.) Rumph. ex A.Juss.', u'current_taxon_id': u'3071476', u'data_source_id': 11, u'data_source_title': u'GBIF Backbone Taxonomy', u'edit_distance': 0, u'gni_uuid': u'7b7cc416-bb84-5aea-92f6-41bc45203ef4', ...}], u'supplied_name_string': u'Codiaeum variegatum'}, {u'is_known_name': True, u'results': [{u'canonical_form': u'Cucurbitaceae', u'classification_path': u'Plantae|Tracheophyta|Magnoliopsida|Cucurbitales|Cucurbitaceae', u'classification_path_ids': u'6|7707728|220|7224005|6634', u'classification_path_ranks': u'kingdom|phylum|class|order|family', u'data_source_id': 11, u'data_source_title': u'GBIF Backbone Taxonomy', u'edit_distance': 0, u'gni_uuid': u'52bd9805-cb5b-5147-861e-712aeccf9cdc', u'imported_at': u'2016-11-13T19:33:08Z', u'match_type': 1, ...}], u'supplied_name_string': u'Cucurbitaceae'}, {u'is_known_name': True, u'results': [{u'canonical_form': u'Cycas', u'classification_path': u'Plantae|Tracheophyta|Cycadopsida|Cycadales|Cycadaceae|Cycas', u'classification_path_ids': u'6|7707728|228|834|6168|2683206', u'classification_path_ranks': u'kingdom|phylum|class|order|family|genus', u'data_source_id': 11, u'data_source_title': u'GBIF Backbone Taxonomy', u'edit_distance': 0, u'gni_uuid': u'c3e2f49d-2401-5d23-b708-461accc9143c', u'imported_at': u'2016-11-13T20:56:46Z', u'match_type': 2, ...}], u'supplied_name_string': u'Cycas'}, {u'is_known_name': True, u'results': [{u'canonical_form': u'Solanum melongena', u'classification_path': u'Plantae|Tracheophyta|Magnoliopsida|Solanales|Solanaceae|Solanum|Solanum melongena', u'classification_path_ids': u'6|7707728|220|1176|7717|2928997|2930617', u'classification_path_ranks': u'kingdom|phylum|class|order|family|genus|species', u'data_source_id': 11, u'data_source_title': u'GBIF Backbone Taxonomy', u'edit_distance': 0, u'gni_uuid': u'252901ea-1e44-5ee9-bb22-5c97897278c5', u'imported_at': u'2016-11-13T22:39:49Z', u'match_type': 2, ...}, {u'canonical_form': u'Solanum melongena', u'classification_path': u'Plantae|Tracheophyta|Magnoliopsida|Solanales|Solanaceae|Solanum|Solanum melongena', u'classification_path_ids': u'6|7707728|220|1176|7717|2928997|8347557', u'classification_path_ranks': u'kingdom|phylum|class|order|family|genus|species', u'data_source_id': 11, u'data_source_title': u'GBIF Backbone Taxonomy', u'edit_distance': 0, u'gni_uuid': u'5b53bd98-5767-5fe5-9cf1-2dc20ced2972', u'imported_at': u'2016-11-13T23:00:48Z', u'match_type': 2, ...}], u'supplied_name_string': u'Solanum melongena'}, {u'is_known_name': True, u'results': [{u'canonical_form': u'Zingiber officinale', u'classification_path': u'Plantae|Tracheophyta|Liliopsida|Zingiberales|Zingiberaceae|Zingiber|Zingiber officinale', u'classification_path_ids': u'6|7707728|196|627|4687|2756693|2757280', u'classification_path_ranks': u'kingdom|phylum|class|order|family|genus|species', u'data_source_id': 11, u'data_source_title': u'GBIF Backbone Taxonomy', u'edit_distance': 0, u'gni_uuid': u'2e48214a-14f8-589d-b73f-14b0e6d849d7', u'imported_at': u'2016-11-13T20:24:09Z', u'match_type': 2, ...}], u'supplied_name_string': u'Zingiber officinale'}, {u'is_known_name': True, u'results': [{u'canonical_form': u'Psidium guajava', u'classification_path': u'Plantae|Tracheophyta|Magnoliopsida|Myrtales|Myrtaceae|Psidium|Psidium guajava', u'classification_path_ids': u'6|7707728|220|690|5014|3187232|5420380', u'classification_path_ranks': u'kingdom|phylum|class|order|family|genus|species', u'data_source_id': 11, u'data_source_title': u'GBIF Backbone Taxonomy', u'edit_distance': 0, u'gni_uuid': u'40b125ac-6959-545f-9354-4585a8f2df8e', u'imported_at': u'2016-11-13T19:32:10Z', u'match_type': 2, ...}], u'supplied_name_string': u'Psidium guajava'}, ...]"
p153
sS'data'
p154
S"{u'data_sources': [{u'id': 11, u'title': u'GBIF Backbone Taxonomy'}], u'engines': [u'TaxonFinder'], u'execution_time': {u'find_names_duration': 1.5606765747070312, u'names_resolution_duration': 6.1280388832092285, u'text_preparation_duration': 0.7433531284332275, u'total_duration': 8.432068586349487}, u'file': None, u'input_url': u'https://aubreymoore.github.io/crop-pest-list/list.html', u'names': [{u'offsetEnd': 763, u'offsetStart': 750, u'scientificName': u'Agave sisalana', u'size': 13, u'verbatim': u'Agave sisalana'}, {u'offsetEnd': 771, u'offsetStart': 765, u'scientificName': u'Avocado', u'size': 6, u'verbatim': u'Avocado'}, {u'offsetEnd': 789, u'offsetStart': 774, u'scientificName': u'Persea americana', u'size': 15, u'verbatim': u'Persea americana'}, {u'offsetEnd': 805, u'offsetStart': 799, u'scientificName': u'Bambusa', u'size': 6, u'verbatim': u'Bambusa'}, {u'offsetEnd': 835, u'offsetStart': 827, u'scientificName': u'Phaseolus', u'size': 8, u'verbatim': u'Phaseolus'}, {u'offsetEnd': 858, u'offsetStart': 852, u'scientificName': u'Cynodon', u'size': 6, u'verbatim': u'Cynodon'}, {u'offsetEnd': 875, u'offsetStart': 871, u'scientificName': u'Areca', u'size': 4, u'verbatim': u'Areca'}, {u'offsetEnd': 898, u'offsetStart': 889, u'scientificName': u'Artocarpus', u'size': 9, u'verbatim': u'Artocarpus'}, {u'offsetEnd': 943, u'offsetStart': 936, u'scientificName': u'Brassica', u'size': 7, u'verbatim': u'Brassica'}, {u'offsetEnd': 960, u'offsetStart': 945, u'scientificName': u'Manihot esculenta', u'size': 15, u'verbatim': u'Cassava, Manihot'}, {u'offsetEnd': 993, u'offsetStart': 979, u'scientificName': u'Theobroma cacao', u'size': 14, u'verbatim': u'Theobroma cacao'}, {u'offsetEnd': 1022, u'offsetStart': 1009, u'scientificName': u'Cocos nucifera', u'size': 13, u'verbatim': u'Cocos nucifera'}, {u'offsetEnd': 1037, u'offsetStart': 1032, u'scientificName': u'Coffea', u'size': 5, u'verbatim': u'Coffea'}, {u'offsetEnd': 1055, u'offsetStart': 1047, u'scientificName': u'Gossypium', u'size': 8, u'verbatim': u'Gossypium'}, {u'offsetEnd': 1084, u'offsetStart': 1066, u'scientificName': u'Codiaeum variegatum', u'size': 18, u'verbatim': u'Codiaeum variegatum'}, {u'offsetEnd': 1130, u'offsetStart': 1118, u'scientificName': u'Cucurbitaceae', u'size': 12, u'verbatim': u'Cucurbitaceae'}, {u'offsetEnd': 1144, u'offsetStart': 1140, u'scientificName': u'Cycas', u'size': 4, u'verbatim': u'Cycas'}, {u'offsetEnd': 1172, u'offsetStart': 1156, u'scientificName': u'Solanum melongena', u'size': 16, u'verbatim': u'Solanum melongena'}, {u'offsetEnd': 1212, u'offsetStart': 1194, u'scientificName': u'Zingiber officinale', u'size': 18, u'verbatim': u'Zingiber officinale'}, {u'offsetEnd': 1235, u'offsetStart': 1221, u'scientificName': u'Psidium guajava', u'size': 14, u'verbatim': u'Psidium guajava'}, ...], u'parameters': {u'all_data_sources': False, u'best_match_only': False, u'data_source_ids': [11], u'detect_language': True, u'engine': 0, u'preferred_data_sources': [], u'return_content': False}, u'queue_size': 0, u'resolved_names': [{u'is_known_name': True, u'results': [{u'canonical_form': u'Agave sisalana', u'classification_path': u'Plantae|Tracheophyta|Liliopsida|Asparagales|Asparagaceae|Agave|Agave sisalana', u'classification_path_ids': u'6|7707728|196|1169|7683|2766430|2766636', u'classification_path_ranks': u'kingdom|phylum|class|order|family|genus|species', u'data_source_id': 11, u'data_source_title': u'GBIF Backbone Taxonomy', u'edit_distance': 0, u'gni_uuid': u'b2a8b282-f846-557e-8f96-aaa26d068cb5', u'imported_at': u'2016-11-13T19:37:29Z', u'match_type': 2, ...}, {u'canonical_form': u'Agave sisalana', u'classification_path': u'Plantae|Tracheophyta|Liliopsida|Asparagales|Asparagaceae|Agave|Agave sisalana', u'classification_path_ids': u'6|7707728|196|1169|7683|2766430|8123118', u'classification_path_ranks': u'kingdom|phylum|class|order|family|genus|species', u'data_source_id': 11, u'data_source_title': u'GBIF Backbone Taxonomy', u'edit_distance': 0, u'gni_uuid': u'c2deb93a-de0e-58cf-bfeb-6fd196652038', u'imported_at': u'2016-11-13T19:37:47Z', u'match_type': 2, ...}], u'supplied_name_string': u'Agave sisalana'}, {u'is_known_name': False, u'supplied_name_string': u'Avocado'}, {u'is_known_name': True, u'results': [{u'canonical_form': u'Persea americana', u'classification_path': u'Plantae|Tracheophyta|Magnoliopsida|Laurales|Lauraceae|Persea|Persea americana', u'classification_path_ids': u'6|7707728|220|407|6688|3034041|3034046', u'classification_path_ranks': u'kingdom|phylum|class|order|family|genus|species', u'data_source_id': 11, u'data_source_title': u'GBIF Backbone Taxonomy', u'edit_distance': 0, u'gni_uuid': u'e9a1bdf0-5723-5e79-af71-d0624abe84bf', u'imported_at': u'2016-11-13T20:45:44Z', u'match_type': 2, ...}], u'supplied_name_string': u'Persea americana'}, {u'is_known_name': True, u'results': [{u'canonical_form': u'Bambusa', u'classification_path': u'Plantae|Tracheophyta|Liliopsida|Poales|Poaceae|Bambusa', u'classification_path_ids': u'6|7707728|196|1369|3073|2705751', u'classification_path_ranks': u'kingdom|phylum|class|order|family|genus', u'data_source_id': 11, u'data_source_title': u'GBIF Backbone Taxonomy', u'edit_distance': 0, u'gni_uuid': u'a925e219-ed86-5bc4-9da8-1c87a47fe6ee', u'imported_at': u'2016-11-13T19:33:26Z', u'match_type': 2, ...}, {u'canonical_form': u'Bambusa', u'classification_path': u'Plantae|Tracheophyta|Liliopsida|Poales|Poaceae|Bambusa', u'classification_path_ids': u'6|7707728|196|1369|3073|7967307', u'classification_path_ranks': u'kingdom|phylum|class|order|family|genus', u'data_source_id': 11, u'data_source_title': u'GBIF Backbone Taxonomy', u'edit_distance': 0, u'gni_uuid': u'5ed044e4-0046-594e-ac8c-00c89290eda5', u'imported_at': u'2016-11-13T19:33:45Z', u'match_type': 2, ...}], u'supplied_name_string': u'Bambusa'}, {u'is_known_name': True, u'results': [{u'canonical_form': u'Phaseolus', u'classification_path': u'Plantae|Tracheophyta|Magnoliopsida|Fabales|Fabaceae|Phaseolus', u'classification_path_ids': u'6|7707728|220|1370|5386|2947798', u'classification_path_ranks': u'kingdom|phylum|class|order|family|genus', u'data_source_id': 11, u'data_source_title': u'GBIF Backbone Taxonomy', u'edit_distance': 0, u'gni_uuid': u'2ce3b469-d181-522d-ab58-ed179758355e', u'imported_at': u'2016-11-13T21:03:10Z', u'match_type': 2, ...}, {u'canonical_form': u'Phaseolus', u'classification_path': u'Animalia|Mollusca|Bivalvia|Nuculanoida|Phaseolidae|Phaseolus', u'classification_path_ids': u'1|52|137|8105257|4587869|2285633', u'classification_path_ranks': u'kingdom|phylum|class|order|family|genus', u'data_source_id': 11, u'data_source_title': u'GBIF Backbone Taxonomy', u'edit_distance': 0, u'gni_uuid': u'ab46891a-e21b-566f-80c2-5acd9636bc54', u'imported_at': u'2016-11-13T20:23:50Z', u'match_type': 2, ...}, {u'canonical_form': u'Phaseolus', u'classification_path': u'Animalia|Receptaculitidae|Phaseolus', u'classification_path_ids': u'1|3251834|3251836', u'classification_path_ranks': u'kingdom|family|genus', u'data_source_id': 11, u'data_source_title': u'GBIF Backbone Taxonomy', u'edit_distance': 0, u'gni_uuid': u'a1cd868c-e6d1-5281-8bf9-d520d3234bb0', u'imported_at': u'2016-11-13T22:35:03Z', u'match_type': 2, ...}], u'supplied_name_string': u'Phaseolus'}, {u'is_known_name': True, u'results': [{u'canonical_form': u'Cynodon', u'classification_path': u'Plantae|Tracheophyta|Liliopsida|Poales|Poaceae|Cynodon', u'classification_path_ids': u'6|7707728|196|1369|3073|2703525', u'classification_path_ranks': u'kingdom|phylum|class|order|family|genus', u'data_source_id': 11, u'data_source_title': u'GBIF Backbone Taxonomy', u'edit_distance': 0, u'gni_uuid': u'16c709c2-b3ab-5e05-8ecc-2b5045e65c56', u'imported_at': u'2016-11-13T19:33:29Z', u'match_type': 2, ...}, {u'canonical_form': u'Cynodon', u'classification_path': u'Animalia|Chordata|Mammalia|Carnivora|Ursidae|Amphicynodon', u'classification_path_ids': u'1|44|359|732|9681|3240118', u'classification_path_ranks': u'kingdom|phylum|class|order|family|genus', u'current_name_string': u'Amphicynodon Filhol, 1882', u'current_taxon_id': u'3240118', u'data_source_id': 11, u'data_source_title': u'GBIF Backbone Taxonomy', u'edit_distance': 0, u'gni_uuid': u'cae7aa87-4ef0-5b65-b278-df8c7d12e524', ...}, {u'canonical_form': u'Cynodon', u'classification_path': u'Plantae|Bryophyta|Bryopsida|Dicranales|Ditrichaceae|Cynodon', u'classification_path_ids': u'6|35|327|1335|8743|3230059', u'classification_path_ranks': u'kingdom|phylum|class|order|family|genus', u'data_source_id': 11, u'data_source_title': u'GBIF Backbone Taxonomy', u'edit_distance': 0, u'gni_uuid': u'b687b45d-8377-5797-b36c-f3a6acd267a9', u'imported_at': u'2016-11-13T20:08:08Z', u'match_type': 2, ...}, {u'canonical_form': u'Cynodon', u'classification_path': u'Animalia|Chordata|Cynodon', u'classification_path_ids': u'1|44|7237238', u'classification_path_ranks': u'kingdom|phylum|genus', u'data_source_id': 11, u'data_source_title': u'GBIF Backbone Taxonomy', u'edit_distance': 0, u'gni_uuid': u'67f171d7-373a-5727-b976-8f59022c9c54', u'imported_at': u'2016-11-13T22:32:24Z', u'match_type': 2, ...}, {u'canonical_form': u'Cynodon', u'classification_path': u'Animalia|Chordata|Actinopterygii|Characiformes|Cynodontidae|Cynodon', u'classification_path_ids': u'1|44|204|537|2978|2352261', u'classification_path_ranks': u'kingdom|phylum|class|order|family|genus', u'data_source_id': 11, u'data_source_title': u'GBIF Backbone Taxonomy', u'edit_distance': 0, u'gni_uuid': u'83582b99-67c7-50b5-98a5-6a02acddf078', u'imported_at': u'2016-11-13T19:49:50Z', u'match_type': 2, ...}], u'supplied_name_string': u'Cynodon'}, {u'is_known_name': True, u'results': [{u'canonical_form': u'Areca', u'classification_path': u'Plantae|Tracheophyta|Liliopsida|Arecales|Arecaceae|Areca', u'classification_path_ids': u'6|7707728|196|552|7681|2736518', u'classification_path_ranks': u'kingdom|phylum|class|order|family|genus', u'data_source_id': 11, u'data_source_title': u'GBIF Backbone Taxonomy', u'edit_distance': 0, u'gni_uuid': u'1b54e274-be21-5fbc-a4df-1feae31e8a6e', u'imported_at': u'2016-11-13T19:01:05Z', u'match_type': 2, ...}], u'supplied_name_string': u'Areca'}, {u'is_known_name': True, u'results': [{u'canonical_form': u'Artocarpus', u'classification_path': u'Plantae|Tracheophyta|Magnoliopsida|Rosales|Moraceae|Artocarpus', u'classification_path_ids': u'6|7707728|220|691|6640|2984563', u'classification_path_ranks': u'kingdom|phylum|class|order|family|genus', u'data_source_id': 11, u'data_source_title': u'GBIF Backbone Taxonomy', u'edit_distance': 0, u'gni_uuid': u'1eefda1f-04af-53be-8140-a7b4f0a12da9', u'imported_at': u'2016-11-13T21:26:25Z', u'match_type': 2, ...}], u'supplied_name_string': u'Artocarpus'}, {u'is_known_name': True, u'results': [{u'canonical_form': u'Brassica', u'classification_path': u'Plantae|Tracheophyta|Magnoliopsida|Brassicales|Brassicaceae|Brassica', u'classification_path_ids': u'6|7707728|220|7225535|3112|3042506', u'classification_path_ranks': u'kingdom|phylum|class|order|family|genus', u'data_source_id': 11, u'data_source_title': u'GBIF Backbone Taxonomy', u'edit_distance': 0, u'gni_uuid': u'd33eb444-d729-5b73-abc2-5c87550cd617', u'imported_at': u'2016-11-13T20:10:49Z', u'match_type': 2, ...}], u'supplied_name_string': u'Brassica'}, {u'is_known_name': True, u'results': [{u'canonical_form': u'Manihot esculenta', u'classification_path': u'Plantae|Tracheophyta|Magnoliopsida|Malpighiales|Euphorbiaceae|Manihot|Manihot esculenta', u'classification_path_ids': u'6|7707728|220|1414|4691|3060685|3060998', u'classification_path_ranks': u'kingdom|phylum|class|order|family|genus|species', u'data_source_id': 11, u'data_source_title': u'GBIF Backbone Taxonomy', u'edit_distance': 0, u'gni_uuid': u'aefc2890-bd60-5ca0-966c-e8a587b430bc', u'imported_at': u'2016-11-13T20:08:09Z', u'match_type': 2, ...}], u'supplied_name_string': u'Manihot esculenta'}, {u'is_known_name': True, u'results': [{u'canonical_form': u'Theobroma cacao', u'classification_path': u'Plantae|Tracheophyta|Magnoliopsida|Malvales|Malvaceae|Theobroma|Theobroma cacao', u'classification_path_ids': u'6|7707728|220|941|6685|2984934|3152205', u'classification_path_ranks': u'kingdom|phylum|class|order|family|genus|species', u'data_source_id': 11, u'data_source_title': u'GBIF Backbone Taxonomy', u'edit_distance': 0, u'gni_uuid': u'8baed9bd-9b5c-59f6-b582-fb828c523d07', u'imported_at': u'2016-11-13T21:13:24Z', u'match_type': 2, ...}, {u'canonical_form': u'Theobroma cacao', u'classification_path': u'Plantae|Tracheophyta|Magnoliopsida|Malvales|Malvaceae|Theobroma|Theobroma cacao|Theobroma cacao', u'classification_path_ids': u'6|7707728|220|941|6685|2984934|3152205|8447802', u'classification_path_ranks': u'kingdom|phylum|class|order|family|genus|species|form', u'data_source_id': 11, u'data_source_title': u'GBIF Backbone Taxonomy', u'edit_distance': 0, u'gni_uuid': u'3197c607-a47c-5b21-aa8c-9313944f8d12', u'imported_at': u'2016-11-13T21:13:24Z', u'match_type': 2, ...}], u'supplied_name_string': u'Theobroma cacao'}, {u'is_known_name': True, u'results': [{u'canonical_form': u'Cocos nucifera', u'classification_path': u'Plantae|Tracheophyta|Liliopsida|Arecales|Arecaceae|Cocos|Cocos nucifera', u'classification_path_ids': u'6|7707728|196|552|7681|2735116|2735117', u'classification_path_ranks': u'kingdom|phylum|class|order|family|genus|species', u'data_source_id': 11, u'data_source_title': u'GBIF Backbone Taxonomy', u'edit_distance': 0, u'gni_uuid': u'127addc3-adb6-570d-8858-fa2b58c97d27', u'imported_at': u'2016-11-13T21:43:28Z', u'match_type': 2, ...}], u'supplied_name_string': u'Cocos nucifera'}, {u'is_known_name': True, u'results': [{u'canonical_form': u'Coffea', u'classification_path': u'Plantae|Tracheophyta|Magnoliopsida|Gentianales|Rubiaceae|Coffea', u'classification_path_ids': u'6|7707728|220|412|8798|2895315', u'classification_path_ranks': u'kingdom|phylum|class|order|family|genus', u'data_source_id': 11, u'data_source_title': u'GBIF Backbone Taxonomy', u'edit_distance': 0, u'gni_uuid': u'c50975fd-6374-5028-a65c-5e21e2b19b53', u'imported_at': u'2016-11-13T22:34:45Z', u'match_type': 2, ...}], u'supplied_name_string': u'Coffea'}, {u'is_known_name': True, u'results': [{u'canonical_form': u'Gossypium', u'classification_path': u'Plantae|Tracheophyta|Magnoliopsida|Malvales|Malvaceae|Gossypium', u'classification_path_ids': u'6|7707728|220|941|6685|3152652', u'classification_path_ranks': u'kingdom|phylum|class|order|family|genus', u'data_source_id': 11, u'data_source_title': u'GBIF Backbone Taxonomy', u'edit_distance': 0, u'gni_uuid': u'6cfd5875-e46a-5a5c-8e76-529dfe577e0f', u'imported_at': u'2016-11-13T21:22:10Z', u'match_type': 2, ...}], u'supplied_name_string': u'Gossypium'}, {u'is_known_name': True, u'results': [{u'canonical_form': u'Codiaeum variegatum', u'classification_path': u'Plantae|Tracheophyta|Magnoliopsida|Malpighiales|Euphorbiaceae|Codiaeum|Codiaeum variegatum', u'classification_path_ids': u'6|7707728|220|1414|4691|3071464|3071476', u'classification_path_ranks': u'kingdom|phylum|class|order|family|genus|species', u'data_source_id': 11, u'data_source_title': u'GBIF Backbone Taxonomy', u'edit_distance': 0, u'gni_uuid': u'9a916565-dd32-5cd7-9cfb-3865a82bc3b8', u'imported_at': u'2016-11-13T20:12:48Z', u'match_type': 2, ...}, {u'canonical_form': u'Codiaeum variegatum', u'classification_path': u'Plantae|Tracheophyta|Magnoliopsida|Malpighiales|Euphorbiaceae|Codiaeum|Codiaeum variegatum', u'classification_path_ids': u'6|7707728|220|1414|4691|3071464|7754956', u'classification_path_ranks': u'kingdom|phylum|class|order|family|genus|species', u'data_source_id': 11, u'data_source_title': u'GBIF Backbone Taxonomy', u'edit_distance': 0, u'gni_uuid': u'ff5d9c21-4871-5707-b64c-d2a2e241cec9', u'imported_at': u'2016-11-13T22:58:25Z', u'match_type': 2, ...}, {u'canonical_form': u'Codiaeum variegatum', u'classification_path': u'Plantae|Tracheophyta|Magnoliopsida|Malpighiales|Euphorbiaceae|Codiaeum|Codiaeum variegatum', u'classification_path_ids': u'6|7707728|220|1414|4691|3071464|3071476', u'classification_path_ranks': u'kingdom|phylum|class|order|family|genus|species', u'current_name_string': u'Codiaeum variegatum (L.) Rumph. ex A.Juss.', u'current_taxon_id': u'3071476', u'data_source_id': 11, u'data_source_title': u'GBIF Backbone Taxonomy', u'edit_distance': 0, u'gni_uuid': u'7b7cc416-bb84-5aea-92f6-41bc45203ef4', ...}], u'supplied_name_string': u'Codiaeum variegatum'}, {u'is_known_name': True, u'results': [{u'canonical_form': u'Cucurbitaceae', u'classification_path': u'Plantae|Tracheophyta|Magnoliopsida|Cucurbitales|Cucurbitaceae', u'classification_path_ids': u'6|7707728|220|7224005|6634', u'classification_path_ranks': u'kingdom|phylum|class|order|family', u'data_source_id': 11, u'data_source_title': u'GBIF Backbone Taxonomy', u'edit_distance': 0, u'gni_uuid': u'52bd9805-cb5b-5147-861e-712aeccf9cdc', u'imported_at': u'2016-11-13T19:33:08Z', u'match_type': 1, ...}], u'supplied_name_string': u'Cucurbitaceae'}, {u'is_known_name': True, u'results': [{u'canonical_form': u'Cycas', u'classification_path': u'Plantae|Tracheophyta|Cycadopsida|Cycadales|Cycadaceae|Cycas', u'classification_path_ids': u'6|7707728|228|834|6168|2683206', u'classification_path_ranks': u'kingdom|phylum|class|order|family|genus', u'data_source_id': 11, u'data_source_title': u'GBIF Backbone Taxonomy', u'edit_distance': 0, u'gni_uuid': u'c3e2f49d-2401-5d23-b708-461accc9143c', u'imported_at': u'2016-11-13T20:56:46Z', u'match_type': 2, ...}], u'supplied_name_string': u'Cycas'}, {u'is_known_name': True, u'results': [{u'canonical_form': u'Solanum melongena', u'classification_path': u'Plantae|Tracheophyta|Magnoliopsida|Solanales|Solanaceae|Solanum|Solanum melongena', u'classification_path_ids': u'6|7707728|220|1176|7717|2928997|2930617', u'classification_path_ranks': u'kingdom|phylum|class|order|family|genus|species', u'data_source_id': 11, u'data_source_title': u'GBIF Backbone Taxonomy', u'edit_distance': 0, u'gni_uuid': u'252901ea-1e44-5ee9-bb22-5c97897278c5', u'imported_at': u'2016-11-13T22:39:49Z', u'match_type': 2, ...}, {u'canonical_form': u'Solanum melongena', u'classification_path': u'Plantae|Tracheophyta|Magnoliopsida|Solanales|Solanaceae|Solanum|Solanum melongena', u'classification_path_ids': u'6|7707728|220|1176|7717|2928997|8347557', u'classification_path_ranks': u'kingdom|phylum|class|order|family|genus|species', u'data_source_id': 11, u'data_source_title': u'GBIF Backbone Taxonomy', u'edit_distance': 0, u'gni_uuid': u'5b53bd98-5767-5fe5-9cf1-2dc20ced2972', u'imported_at': u'2016-11-13T23:00:48Z', u'match_type': 2, ...}], u'supplied_name_string': u'Solanum melongena'}, {u'is_known_name': True, u'results': [{u'canonical_form': u'Zingiber officinale', u'classification_path': u'Plantae|Tracheophyta|Liliopsida|Zingiberales|Zingiberaceae|Zingiber|Zingiber officinale', u'classification_path_ids': u'6|7707728|196|627|4687|2756693|2757280', u'classification_path_ranks': u'kingdom|phylum|class|order|family|genus|species', u'data_source_id': 11, u'data_source_title': u'GBIF Backbone Taxonomy', u'edit_distance': 0, u'gni_uuid': u'2e48214a-14f8-589d-b73f-14b0e6d849d7', u'imported_at': u'2016-11-13T20:24:09Z', u'match_type': 2, ...}], u'supplied_name_string': u'Zingiber officinale'}, {u'is_known_name': True, u'results': [{u'canonical_form': u'Psidium guajava', u'classification_path': u'Plantae|Tracheophyta|Magnoliopsida|Myrtales|Myrtaceae|Psidium|Psidium guajava', u'classification_path_ids': u'6|7707728|220|690|5014|3187232|5420380', u'classification_path_ranks': u'kingdom|phylum|class|order|family|genus|species', u'data_source_id': 11, u'data_source_title': u'GBIF Backbone Taxonomy', u'edit_distance': 0, u'gni_uuid': u'40b125ac-6959-545f-9354-4585a8f2df8e', u'imported_at': u'2016-11-13T19:32:10Z', u'match_type': 2, ...}], u'supplied_name_string': u'Psidium guajava'}, ...], u'status': 200, ...}"
p155
sS'name_list'
p156
S'[]'
p157
sS'row'
p158
S"{u'is_known_name': False, u'supplied_name_string': u'Avocado'}"
p159
sssS'traceback'
p160
S'Traceback (most recent call last):\n  File "/home/aubreymoore/Devel/playpen/web2py/gluon/restricted.py", line 227, in restricted\n    exec ccode in environment\n  File "/home/aubreymoore/Devel/playpen/web2py/applications/pestlist/controllers/default.py", line 302, in <module>\n  File "/home/aubreymoore/Devel/playpen/web2py/gluon/globals.py", line 417, in <lambda>\n    self._caller = lambda f: f()\n  File "/home/aubreymoore/Devel/playpen/web2py/applications/pestlist/controllers/default.py", line 92, in get_supplied_names\n    print(row[\'results\'][0].get(\'canonical_form\',\'\'))\nKeyError: \'results\'\n'
p161
s.