(dp1
S'output'
p2
S"<type 'exceptions.AssertionError'> "
p3
sS'layer'
p4
S'/home/aubreymoore/Devel/playpen/web2py/applications/pestlist/controllers/default.py'
p5
sS'code'
p6
S'# -*- coding: utf-8 -*-\n# this file is released under public domain and you can use without limitations\n\n# -------------------------------------------------------------------------\n# This is a sample controller\n# - index is the default action of any application\n# - user is required for authentication and authorization\n# - download is for downloading files uploaded in the db (does streaming)\n# -------------------------------------------------------------------------\n\ndef get_extracted_names():\n    # Returns the contents of the \'extracted_names_json\' field in the first record of the \'extracted_names\' table.\n    return db(db.extracted_names).select()[0][\'extracted_names_json\']\n\ndef parse_resolved_names():\n    \'\'\'\n    docs go Here\n    \'\'\'\n    rows = db(db.taxon).select()\n    if len(rows) == 0:\n        db.taxon.insert(name=\'root\', tid=0)\n\n    resolved_names_list = get_extracted_names()[\'resolved_names\']\n    for resolved_name in resolved_names_list:\n        results_list = resolved_name.get(\'results\', None)\n        if results_list:\n            result_dict = results_list[0]\n            classification_path = result_dict[\'classification_path\'].split(\'|\')\n            classification_path_ids = result_dict[\'classification_path_ids\'].split(\'|\')\n            classification_path_ranks = result_dict[\'classification_path_ranks\'].split(\'|\')\n\n            assert classification_path[0] == \'kingdom\'\n            assert len(classification_path) == len(classification_path_ids)\n            assert len(classification_path_ids) == len(classification_path_ranks)\n\n            for i in range(len(classification_path)):\n                if i == 0:\n                    parent_tid = 0\n                else:\n                    parent_tid = classification_path[i-1]\n                try:\n                    tid = classification_path_ids[i],\n                    name = classification_path[i],\n                    trank = classification_path_ranks[i]\n                except:\n                    pass\n    return\n\nimport requests\nimport time\n\ndef find_names(doc_url):\n    \'\'\'\n    DOCS GO Here\n    \'\'\'\n    url = \'http://gnrd.globalnames.org/name_finder.json?\'\n    #params = {\'url\': \'https://aubreymoore.github.io/crop-pest-list/list.html\'}\n    params = {\'url\': doc_url, \'data_source_ids\': \'11\'}\n    r = requests.get(url, params)\n    mydict = r.json()\n    token_url = mydict[\'token_url\']\n    print(\'token_url: {}\'.format(token_url))\n\n    # Poll the token url once a second for 100 s to see if results have been returned.\n    i = 0\n    while i <= 100:\n        i += 1\n        time.sleep(1)\n        r = requests.get(token_url)\n        mydict = r.json()\n        status = mydict.get(\'status\',\'\')\n        queue_size = mydict.get(\'queue_size\',\'\')\n        print(\'{} status: {} queue_size: {}\'.format(i, status, queue_size))\n        if status != 303:\n            break\n    return(mydict)\n\n#doc_url = \'https://aubreymoore.github.io/crop-pest-list/list.html\'\n#extracted_taxa = find_names(doc_url)\n\ndef doit():\n    if len(db(db.extracted_names).select())==0:\n        doc_url = \'https://aubreymoore.github.io/crop-pest-list/list.html\'\n        db.extracted_names.insert(extracted_names_json=find_names(doc_url))\n        return(\'Added record.\')\n    return(\'Did not add record\')\n\n\ndef index():\n    """\n    example action using the internationalization operator T and flash\n    rendered by views/default/index.html or views/generic.html\n\n    if you need a simple wiki simply replace the two lines below with:\n    return auth.wiki()\n    """\n    # response.flash = T("Hello World")\n    return dict(message=T(\'Welcome to pestlist!\'))\n\n\ndef user():\n    """\n    exposes:\n    http://..../[app]/default/user/login\n    http://..../[app]/default/user/logout\n    http://..../[app]/default/user/register\n    http://..../[app]/default/user/profile\n    http://..../[app]/default/user/retrieve_password\n    http://..../[app]/default/user/change_password\n    http://..../[app]/default/user/bulk_register\n    use @auth.requires_login()\n        @auth.requires_membership(\'group name\')\n        @auth.requires_permission(\'read\',\'table name\',record_id)\n    to decorate functions that need access control\n    also notice there is http://..../[app]/appadmin/manage/auth to allow administrator to manage users\n    """\n    return dict(form=auth())\n\n\n@cache.action()\ndef download():\n    """\n    allows downloading of uploaded files\n    http://..../[app]/default/download/[filename]\n    """\n    return response.download(request, db)\n\n\ndef call():\n    """\n    exposes services. for example:\n    http://..../[app]/default/call/jsonrpc\n    decorate with @services.jsonrpc the functions to expose\n    supports xml, json, xmlrpc, jsonrpc, amfrpc, rss, csv\n    """\n    return service()\n\nresponse._vars=response._caller(parse_resolved_names)\n'
p7
sS'snapshot'
p8
(dp9
S'exception'
p10
(dp11
S'__hash__'
p12
S"<method-wrapper '__hash__' of exceptions.AssertionError object>"
p13
sS'__setattr__'
p14
S"<method-wrapper '__setattr__' of exceptions.AssertionError object>"
p15
sS'__reduce_ex__'
p16
S'<built-in method __reduce_ex__ of exceptions.AssertionError object>'
p17
sS'__getslice__'
p18
S"<method-wrapper '__getslice__' of exceptions.AssertionError object>"
p19
sS'__getitem__'
p20
S"<method-wrapper '__getitem__' of exceptions.AssertionError object>"
p21
sS'__setstate__'
p22
S'<built-in method __setstate__ of exceptions.AssertionError object>'
p23
sS'args'
p24
S'()'
p25
sS'__reduce__'
p26
S'<built-in method __reduce__ of exceptions.AssertionError object>'
p27
sS'__str__'
p28
S"<method-wrapper '__str__' of exceptions.AssertionError object>"
p29
sS'__format__'
p30
S'<built-in method __format__ of exceptions.AssertionError object>'
p31
sS'__getattribute__'
p32
S"<method-wrapper '__getattribute__' of exceptions.AssertionError object>"
p33
sS'__class__'
p34
S"<type 'exceptions.AssertionError'>"
p35
sS'__unicode__'
p36
S'<built-in method __unicode__ of exceptions.AssertionError object>'
p37
sS'__delattr__'
p38
S"<method-wrapper '__delattr__' of exceptions.AssertionError object>"
p39
sS'__subclasshook__'
p40
S'<built-in method __subclasshook__ of type object>'
p41
sS'__repr__'
p42
S"<method-wrapper '__repr__' of exceptions.AssertionError object>"
p43
sS'__dict__'
p44
S'{}'
p45
sS'__sizeof__'
p46
S'<built-in method __sizeof__ of exceptions.AssertionError object>'
p47
sS'__doc__'
p48
S"'Assertion failed.'"
p49
sS'__init__'
p50
S"<method-wrapper '__init__' of exceptions.AssertionError object>"
p51
sS'__new__'
p52
S'<built-in method __new__ of type object>'
p53
ssS'evalue'
p54
S''
sS'request'
p55
cgluon.html
XML_unpickle
p56
(S's\x86a\x00\x00<div><table><tr><td style="font-weight:bold;vertical-align:top;">ajax</td><td style="vertical-align:top;">:</td><td><div>False</div></td></tr><tr><td style="font-weight:bold;vertical-align:top;">application</td><td style="vertical-align:top;">:</td><td><div>pestlist</div></td></tr><tr><td style="font-weight:bold;vertical-align:top;">args</td><td style="vertical-align:top;">:</td><td><div><table></table></div></td></tr><tr><td style="font-weight:bold;vertical-align:top;">cid</td><td style="vertical-align:top;">:</td><td><div>None</div></td></tr><tr><td style="font-weight:bold;vertical-align:top;">client</td><td style="vertical-align:top;">:</td><td><div>127.0.0.1</div></td></tr><tr><td style="font-weight:bold;vertical-align:top;">controller</td><td style="vertical-align:top;">:</td><td><div>default</div></td></tr><tr><td style="font-weight:bold;vertical-align:top;">cookies</td><td style="vertical-align:top;">:</td><td><div><table><tr><td style="font-weight:bold;vertical-align:top;">csrftoken</td><td style="vertical-align:top;">:</td><td><div>BdTm5f24ojwsp4yL4jX8IsiJa0T76YbSARW2xjlSwGWw4A5cHgusNPqKYJHYqgnC<table><tr><td style="font-weight:bold;vertical-align:top;">comment</td><td style="vertical-align:top;">:</td><td><div></div></td></tr><tr><td style="font-weight:bold;vertical-align:top;">domain</td><td style="vertical-align:top;">:</td><td><div></div></td></tr><tr><td style="font-weight:bold;vertical-align:top;">expires</td><td style="vertical-align:top;">:</td><td><div></div></td></tr><tr><td style="font-weight:bold;vertical-align:top;">httponly</td><td style="vertical-align:top;">:</td><td><div></div></td></tr><tr><td style="font-weight:bold;vertical-align:top;">max-age</td><td style="vertical-align:top;">:</td><td><div></div></td></tr><tr><td style="font-weight:bold;vertical-align:top;">path</td><td style="vertical-align:top;">:</td><td><div></div></td></tr><tr><td style="font-weight:bold;vertical-align:top;">secure</td><td style="vertical-align:top;">:</td><td><div></div></td></tr><tr><td style="font-weight:bold;vertical-align:top;">version</td><td style="vertical-align:top;">:</td><td><div></div></td></tr></table></div></td></tr><tr><td style="font-weight:bold;vertical-align:top;">session_id_admin</td><td style="vertical-align:top;">:</td><td><div>127.0.0.1-303bf276-e9a9-4732-bc70-7f8f1bf83a42<table><tr><td style="font-weight:bold;vertical-align:top;">comment</td><td style="vertical-align:top;">:</td><td><div></div></td></tr><tr><td style="font-weight:bold;vertical-align:top;">domain</td><td style="vertical-align:top;">:</td><td><div></div></td></tr><tr><td style="font-weight:bold;vertical-align:top;">expires</td><td style="vertical-align:top;">:</td><td><div></div></td></tr><tr><td style="font-weight:bold;vertical-align:top;">httponly</td><td style="vertical-align:top;">:</td><td><div></div></td></tr><tr><td style="font-weight:bold;vertical-align:top;">max-age</td><td style="vertical-align:top;">:</td><td><div></div></td></tr><tr><td style="font-weight:bold;vertical-align:top;">path</td><td style="vertical-align:top;">:</td><td><div></div></td></tr><tr><td style="font-weight:bold;vertical-align:top;">secure</td><td style="vertical-align:top;">:</td><td><div></div></td></tr><tr><td style="font-weight:bold;vertical-align:top;">version</td><td style="vertical-align:top;">:</td><td><div></div></td></tr></table></div></td></tr><tr><td style="font-weight:bold;vertical-align:top;">session_id_pestlist</td><td style="vertical-align:top;">:</td><td><div>127.0.0.1-8f56abe9-c06a-4b13-abcf-5690a08f1865<table><tr><td style="font-weight:bold;vertical-align:top;">comment</td><td style="vertical-align:top;">:</td><td><div></div></td></tr><tr><td style="font-weight:bold;vertical-align:top;">domain</td><td style="vertical-align:top;">:</td><td><div></div></td></tr><tr><td style="font-weight:bold;vertical-align:top;">expires</td><td style="vertical-align:top;">:</td><td><div></div></td></tr><tr><td style="font-weight:bold;vertical-align:top;">httponly</td><td style="vertical-align:top;">:</td><td><div></div></td></tr><tr><td style="font-weight:bold;vertical-align:top;">max-age</td><td style="vertical-align:top;">:</td><td><div></div></td></tr><tr><td style="font-weight:bold;vertical-align:top;">path</td><td style="vertical-align:top;">:</td><td><div></div></td></tr><tr><td style="font-weight:bold;vertical-align:top;">secure</td><td style="vertical-align:top;">:</td><td><div></div></td></tr><tr><td style="font-weight:bold;vertical-align:top;">version</td><td style="vertical-align:top;">:</td><td><div></div></td></tr></table></div></td></tr><tr><td style="font-weight:bold;vertical-align:top;">session_id_welcome</td><td style="vertical-align:top;">:</td><td><div>127.0.0.1-1fda9f63-b363-4c90-8b74-7c5b95b64626<table><tr><td style="font-weight:bold;vertical-align:top;">comment</td><td style="vertical-align:top;">:</td><td><div></div></td></tr><tr><td style="font-weight:bold;vertical-align:top;">domain</td><td style="vertical-align:top;">:</td><td><div></div></td></tr><tr><td style="font-weight:bold;vertical-align:top;">expires</td><td style="vertical-align:top;">:</td><td><div></div></td></tr><tr><td style="font-weight:bold;vertical-align:top;">httponly</td><td style="vertical-align:top;">:</td><td><div></div></td></tr><tr><td style="font-weight:bold;vertical-align:top;">max-age</td><td style="vertical-align:top;">:</td><td><div></div></td></tr><tr><td style="font-weight:bold;vertical-align:top;">path</td><td style="vertical-align:top;">:</td><td><div></div></td></tr><tr><td style="font-weight:bold;vertical-align:top;">secure</td><td style="vertical-align:top;">:</td><td><div></div></td></tr><tr><td style="font-weight:bold;vertical-align:top;">version</td><td style="vertical-align:top;">:</td><td><div></div></td></tr></table></div></td></tr></table></div></td></tr><tr><td style="font-weight:bold;vertical-align:top;">env</td><td style="vertical-align:top;">:</td><td><div><table><tr><td style="font-weight:bold;vertical-align:top;">HTTP_ACCEPT</td><td style="vertical-align:top;">:</td><td><div>text/html,application/xhtml+xml,application/xml;q=0.9,*/*;q=0.8</div></td></tr><tr><td style="font-weight:bold;vertical-align:top;">HTTP_ACCEPT_ENCODING</td><td style="vertical-align:top;">:</td><td><div>gzip, deflate</div></td></tr><tr><td style="font-weight:bold;vertical-align:top;">HTTP_ACCEPT_LANGUAGE</td><td style="vertical-align:top;">:</td><td><div>en-US,en;q=0.5</div></td></tr><tr><td style="font-weight:bold;vertical-align:top;">HTTP_CACHE_CONTROL</td><td style="vertical-align:top;">:</td><td><div>max-age=0</div></td></tr><tr><td style="font-weight:bold;vertical-align:top;">HTTP_CONNECTION</td><td style="vertical-align:top;">:</td><td><div>keep-alive</div></td></tr><tr><td style="font-weight:bold;vertical-align:top;">HTTP_COOKIE</td><td style="vertical-align:top;">:</td><td><div>csrftoken=BdTm5f24ojwsp4yL4jX8IsiJa0T76YbSARW2xjlSwGWw4A5cHgusNPqKYJHYqgnC; session_id_admin=127.0.0.1-303bf276-e9a9-4732-bc70-7f8f1bf83a42; session_id_pestlist=127.0.0.1-8f56abe9-c06a-4b13-abcf-5690a08f1865; session_id_welcome=127.0.0.1-1fda9f63-b363-4c90-8b74-7c5b95b64626</div></td></tr><tr><td style="font-weight:bold;vertical-align:top;">HTTP_HOST</td><td style="vertical-align:top;">:</td><td><div>127.0.0.1:8000</div></td></tr><tr><td style="font-weight:bold;vertical-align:top;">HTTP_UPGRADE_INSECURE_REQUESTS</td><td style="vertical-align:top;">:</td><td><div>1</div></td></tr><tr><td style="font-weight:bold;vertical-align:top;">HTTP_USER_AGENT</td><td style="vertical-align:top;">:</td><td><div>Mozilla/5.0 (X11; Ubuntu; Linux x86_64; rv:51.0) Gecko/20100101 Firefox/51.0</div></td></tr><tr><td style="font-weight:bold;vertical-align:top;">PATH_INFO</td><td style="vertical-align:top;">:</td><td><div>/pestlist/default/parse_resolved_names</div></td></tr><tr><td style="font-weight:bold;vertical-align:top;">QUERY_STRING</td><td style="vertical-align:top;">:</td><td><div></div></td></tr><tr><td style="font-weight:bold;vertical-align:top;">REMOTE_ADDR</td><td style="vertical-align:top;">:</td><td><div>127.0.0.1</div></td></tr><tr><td style="font-weight:bold;vertical-align:top;">REMOTE_PORT</td><td style="vertical-align:top;">:</td><td><div>43324</div></td></tr><tr><td style="font-weight:bold;vertical-align:top;">REQUEST_METHOD</td><td style="vertical-align:top;">:</td><td><div>GET</div></td></tr><tr><td style="font-weight:bold;vertical-align:top;">SCRIPT_NAME</td><td style="vertical-align:top;">:</td><td><div></div></td></tr><tr><td style="font-weight:bold;vertical-align:top;">SERVER_NAME</td><td style="vertical-align:top;">:</td><td><div>aubreymoore-Aspire-7750Z</div></td></tr><tr><td style="font-weight:bold;vertical-align:top;">SERVER_PORT</td><td style="vertical-align:top;">:</td><td><div>8000</div></td></tr><tr><td style="font-weight:bold;vertical-align:top;">SERVER_PROTOCOL</td><td style="vertical-align:top;">:</td><td><div>HTTP/1.1</div></td></tr><tr><td style="font-weight:bold;vertical-align:top;">SERVER_SOFTWARE</td><td style="vertical-align:top;">:</td><td><div>Rocket 1.2.6</div></td></tr><tr><td style="font-weight:bold;vertical-align:top;">app_folders</td><td style="vertical-align:top;">:</td><td><div>set([&#x27;/home/aubreymoore/Devel/playpen/web2py/applications/pestlist/&#x27;, &#x27;/home/aubreymoore/Devel/playpen/web2py/applications/welcome/&#x27;, &#x27;/home/aubreymoore/Devel/playpen/web2py/applications/admin/&#x27;])</div></td></tr><tr><td style="font-weight:bold;vertical-align:top;">applications_parent</td><td style="vertical-align:top;">:</td><td><div>/home/aubreymoore/Devel/playpen/web2py</div></td></tr><tr><td style="font-weight:bold;vertical-align:top;">cmd_args</td><td style="vertical-align:top;">:</td><td><div><table></table></div></td></tr><tr><td style="font-weight:bold;vertical-align:top;">cmd_options</td><td style="vertical-align:top;">:</td><td><div>&lt;Values at 0x7f1f03c23368: {&#x27;verbose&#x27;: False, &#x27;ip&#x27;: &#x27;127.0.0.1&#x27;, &#x27;debuglevel&#x27;: 30, &#x27;with_scheduler&#x27;: False, &#x27;shutdown_timeout&#x27;: 5, &#x27;taskbar&#x27;: False, &#x27;with_coverage&#x27;: False, &#x27;pid_filename&#x27;: &#x27;httpserver.pid&#x27;, &#x27;maxthreads&#x27;: None, &#x27;softcron&#x27;: False, &#x27;server_name&#x27;: &#x27;aubreymoore-Aspire-7750Z&#x27;, &#x27;bpython&#x27;: False, &#x27;nogui&#x27;: False, &#x27;port&#x27;: 8000, &#x27;print_errors&#x27;: False, &#x27;extcron&#x27;: False, &#x27;runcron&#x27;: False, &#x27;run_system_tests&#x27;: False, &#x27;test&#x27;: None, &#x27;folder&#x27;: &#x27;/home/aubreymoore/Devel/playpen/web2py&#x27;, &#x27;config&#x27;: &#x27;&#x27;, &#x27;minthreads&#x27;: None, &#x27;shell&#x27;: None, &#x27;run&#x27;: &#x27;&#x27;, &#x27;log_filename&#x27;: &#x27;httpserver.log&#x27;, &#x27;profiler_dir&#x27;: None, &#x27;args&#x27;: [&#x27;&#x27;], &#x27;socket_timeout&#x27;: 5, &#x27;ssl_ca_certificate&#x27;: None, &#x27;scheduler&#x27;: None, &#x27;interfaces&#x27;: None, &#x27;ssl_private_key&#x27;: &#x27;&#x27;, &#x27;gae&#x27;: None, &#x27;password&#x27;: &#x27;******&#x27;, &#x27;request_queue_size&#x27;: 5, &#x27;ssl_certificate&#x27;: &#x27;&#x27;, &#x27;cronjob&#x27;: False, &#x27;numthreads&#x27;: None, &#x27;quiet&#x27;: False, &#x27;import_models&#x27;: False, &#x27;timeout&#x27;: 10, &#x27;plain&#x27;: False, &#x27;nobanner&#x27;: False}&gt;</div></td></tr><tr><td style="font-weight:bold;vertical-align:top;">db_sessions</td><td style="vertical-align:top;">:</td><td><div>set([])</div></td></tr><tr><td style="font-weight:bold;vertical-align:top;">debugging</td><td style="vertical-align:top;">:</td><td><div>True</div></td></tr><tr><td style="font-weight:bold;vertical-align:top;">gluon_parent</td><td style="vertical-align:top;">:</td><td><div>/home/aubreymoore/Devel/playpen/web2py</div></td></tr><tr><td style="font-weight:bold;vertical-align:top;">http_accept</td><td style="vertical-align:top;">:</td><td><div>text/html,application/xhtml+xml,application/xml;q=0.9,*/*;q=0.8</div></td></tr><tr><td style="font-weight:bold;vertical-align:top;">http_accept_encoding</td><td style="vertical-align:top;">:</td><td><div>gzip, deflate</div></td></tr><tr><td style="font-weight:bold;vertical-align:top;">http_accept_language</td><td style="vertical-align:top;">:</td><td><div>en-US,en;q=0.5</div></td></tr><tr><td style="font-weight:bold;vertical-align:top;">http_cache_control</td><td style="vertical-align:top;">:</td><td><div>max-age=0</div></td></tr><tr><td style="font-weight:bold;vertical-align:top;">http_connection</td><td style="vertical-align:top;">:</td><td><div>keep-alive</div></td></tr><tr><td style="font-weight:bold;vertical-align:top;">http_cookie</td><td style="vertical-align:top;">:</td><td><div>csrftoken=BdTm5f24ojwsp4yL4jX8IsiJa0T76YbSARW2xjlSwGWw4A5cHgusNPqKYJHYqgnC; session_id_admin=127.0.0.1-303bf276-e9a9-4732-bc70-7f8f1bf83a42; session_id_pestlist=127.0.0.1-8f56abe9-c06a-4b13-abcf-5690a08f1865; session_id_welcome=127.0.0.1-1fda9f63-b363-4c90-8b74-7c5b95b64626</div></td></tr><tr><td style="font-weight:bold;vertical-align:top;">http_host</td><td style="vertical-align:top;">:</td><td><div>127.0.0.1:8000</div></td></tr><tr><td style="font-weight:bold;vertical-align:top;">http_upgrade_insecure_requests</td><td style="vertical-align:top;">:</td><td><div>1</div></td></tr><tr><td style="font-weight:bold;vertical-align:top;">http_user_agent</td><td style="vertical-align:top;">:</td><td><div>Mozilla/5.0 (X11; Ubuntu; Linux x86_64; rv:51.0) Gecko/20100101 Firefox/51.0</div></td></tr><tr><td style="font-weight:bold;vertical-align:top;">is_jython</td><td style="vertical-align:top;">:</td><td><div>False</div></td></tr><tr><td style="font-weight:bold;vertical-align:top;">is_pypy</td><td style="vertical-align:top;">:</td><td><div>False</div></td></tr><tr><td style="font-weight:bold;vertical-align:top;">is_source</td><td style="vertical-align:top;">:</td><td><div>True</div></td></tr><tr><td style="font-weight:bold;vertical-align:top;">local_hosts</td><td style="vertical-align:top;">:</td><td><div><table><tr><td><div>::1</div></td></tr><tr><td><div>127.0.1.1</div></td></tr><tr><td><div>::ffff:127.0.0.1</div></td></tr><tr><td><div>127.0.0.1</div></td></tr><tr><td><div>aubreymoore-Aspire-7750Z</div></td></tr></table></div></td></tr><tr><td style="font-weight:bold;vertical-align:top;">path_info</td><td style="vertical-align:top;">:</td><td><div>/pestlist/default/parse_resolved_names</div></td></tr><tr><td style="font-weight:bold;vertical-align:top;">query_string</td><td style="vertical-align:top;">:</td><td><div></div></td></tr><tr><td style="font-weight:bold;vertical-align:top;">remote_addr</td><td style="vertical-align:top;">:</td><td><div>127.0.0.1</div></td></tr><tr><td style="font-weight:bold;vertical-align:top;">remote_port</td><td style="vertical-align:top;">:</td><td><div>43324</div></td></tr><tr><td style="font-weight:bold;vertical-align:top;">request_method</td><td style="vertical-align:top;">:</td><td><div>GET</div></td></tr><tr><td style="font-weight:bold;vertical-align:top;">request_uri</td><td style="vertical-align:top;">:</td><td><div>/pestlist/default/parse_resolved_names</div></td></tr><tr><td style="font-weight:bold;vertical-align:top;">script_name</td><td style="vertical-align:top;">:</td><td><div></div></td></tr><tr><td style="font-weight:bold;vertical-align:top;">server_name</td><td style="vertical-align:top;">:</td><td><div>aubreymoore-Aspire-7750Z</div></td></tr><tr><td style="font-weight:bold;vertical-align:top;">server_port</td><td style="vertical-align:top;">:</td><td><div>8000</div></td></tr><tr><td style="font-weight:bold;vertical-align:top;">server_protocol</td><td style="vertical-align:top;">:</td><td><div>HTTP/1.1</div></td></tr><tr><td style="font-weight:bold;vertical-align:top;">server_software</td><td style="vertical-align:top;">:</td><td><div>Rocket 1.2.6</div></td></tr><tr><td style="font-weight:bold;vertical-align:top;">web2py_path</td><td style="vertical-align:top;">:</td><td><div>/home/aubreymoore/Devel/playpen/web2py</div></td></tr><tr><td style="font-weight:bold;vertical-align:top;">web2py_version</td><td style="vertical-align:top;">:</td><td><div>2.14.6-stable+timestamp.2016.05.10.00.21.47</div></td></tr><tr><td style="font-weight:bold;vertical-align:top;">wsgi.errors</td><td style="vertical-align:top;">:</td><td><div>&lt;open file &#x27;&lt;stderr&gt;&#x27;, mode &#x27;w&#x27; at 0x7f1f0c6c41e0&gt;</div></td></tr><tr><td style="font-weight:bold;vertical-align:top;">wsgi.file_wrapper</td><td style="vertical-align:top;">:</td><td><div>&lt;class wsgiref.util.FileWrapper at 0x7f1f03cccc80&gt;</div></td></tr><tr><td style="font-weight:bold;vertical-align:top;">wsgi.input</td><td style="vertical-align:top;">:</td><td><div>&lt;socket._fileobject object at 0x7f1ec9c4ad50&gt;</div></td></tr><tr><td style="font-weight:bold;vertical-align:top;">wsgi.multiprocess</td><td style="vertical-align:top;">:</td><td><div>False</div></td></tr><tr><td style="font-weight:bold;vertical-align:top;">wsgi.multithread</td><td style="vertical-align:top;">:</td><td><div>True</div></td></tr><tr><td style="font-weight:bold;vertical-align:top;">wsgi.run_once</td><td style="vertical-align:top;">:</td><td><div>False</div></td></tr><tr><td style="font-weight:bold;vertical-align:top;">wsgi.url_scheme</td><td style="vertical-align:top;">:</td><td><div>http</div></td></tr><tr><td style="font-weight:bold;vertical-align:top;">wsgi.version</td><td style="vertical-align:top;">:</td><td><div><table><tr><td><div>1</div></td></tr><tr><td><div>0</div></td></tr></table></div></td></tr><tr><td style="font-weight:bold;vertical-align:top;">wsgi_errors</td><td style="vertical-align:top;">:</td><td><div>&lt;open file &#x27;&lt;stderr&gt;&#x27;, mode &#x27;w&#x27; at 0x7f1f0c6c41e0&gt;</div></td></tr><tr><td style="font-weight:bold;vertical-align:top;">wsgi_file_wrapper</td><td style="vertical-align:top;">:</td><td><div>&lt;class wsgiref.util.FileWrapper at 0x7f1f03cccc80&gt;</div></td></tr><tr><td style="font-weight:bold;vertical-align:top;">wsgi_input</td><td style="vertical-align:top;">:</td><td><div>&lt;socket._fileobject object at 0x7f1ec9c4ad50&gt;</div></td></tr><tr><td style="font-weight:bold;vertical-align:top;">wsgi_multiprocess</td><td style="vertical-align:top;">:</td><td><div>False</div></td></tr><tr><td style="font-weight:bold;vertical-align:top;">wsgi_multithread</td><td style="vertical-align:top;">:</td><td><div>True</div></td></tr><tr><td style="font-weight:bold;vertical-align:top;">wsgi_run_once</td><td style="vertical-align:top;">:</td><td><div>False</div></td></tr><tr><td style="font-weight:bold;vertical-align:top;">wsgi_url_scheme</td><td style="vertical-align:top;">:</td><td><div>http</div></td></tr><tr><td style="font-weight:bold;vertical-align:top;">wsgi_version</td><td style="vertical-align:top;">:</td><td><div><table><tr><td><div>1</div></td></tr><tr><td><div>0</div></td></tr></table></div></td></tr></table></div></td></tr><tr><td style="font-weight:bold;vertical-align:top;">extension</td><td style="vertical-align:top;">:</td><td><div>html</div></td></tr><tr><td style="font-weight:bold;vertical-align:top;">folder</td><td style="vertical-align:top;">:</td><td><div>/home/aubreymoore/Devel/playpen/web2py/applications/pestlist/</div></td></tr><tr><td style="font-weight:bold;vertical-align:top;">function</td><td style="vertical-align:top;">:</td><td><div>parse_resolved_names</div></td></tr><tr><td style="font-weight:bold;vertical-align:top;">global_settings</td><td style="vertical-align:top;">:</td><td><div><table><tr><td style="font-weight:bold;vertical-align:top;">app_folders</td><td style="vertical-align:top;">:</td><td><div>set([&#x27;/home/aubreymoore/Devel/playpen/web2py/applications/pestlist/&#x27;, &#x27;/home/aubreymoore/Devel/playpen/web2py/applications/welcome/&#x27;, &#x27;/home/aubreymoore/Devel/playpen/web2py/applications/admin/&#x27;])</div></td></tr><tr><td style="font-weight:bold;vertical-align:top;">applications_parent</td><td style="vertical-align:top;">:</td><td><div>/home/aubreymoore/Devel/playpen/web2py</div></td></tr><tr><td style="font-weight:bold;vertical-align:top;">cmd_args</td><td style="vertical-align:top;">:</td><td><div><table></table></div></td></tr><tr><td style="font-weight:bold;vertical-align:top;">cmd_options</td><td style="vertical-align:top;">:</td><td><div>&lt;Values at 0x7f1f03c23368: {&#x27;verbose&#x27;: False, &#x27;ip&#x27;: &#x27;127.0.0.1&#x27;, &#x27;debuglevel&#x27;: 30, &#x27;with_scheduler&#x27;: False, &#x27;shutdown_timeout&#x27;: 5, &#x27;taskbar&#x27;: False, &#x27;with_coverage&#x27;: False, &#x27;pid_filename&#x27;: &#x27;httpserver.pid&#x27;, &#x27;maxthreads&#x27;: None, &#x27;softcron&#x27;: False, &#x27;server_name&#x27;: &#x27;aubreymoore-Aspire-7750Z&#x27;, &#x27;bpython&#x27;: False, &#x27;nogui&#x27;: False, &#x27;port&#x27;: 8000, &#x27;print_errors&#x27;: False, &#x27;extcron&#x27;: False, &#x27;runcron&#x27;: False, &#x27;run_system_tests&#x27;: False, &#x27;test&#x27;: None, &#x27;folder&#x27;: &#x27;/home/aubreymoore/Devel/playpen/web2py&#x27;, &#x27;config&#x27;: &#x27;&#x27;, &#x27;minthreads&#x27;: None, &#x27;shell&#x27;: None, &#x27;run&#x27;: &#x27;&#x27;, &#x27;log_filename&#x27;: &#x27;httpserver.log&#x27;, &#x27;profiler_dir&#x27;: None, &#x27;args&#x27;: [&#x27;&#x27;], &#x27;socket_timeout&#x27;: 5, &#x27;ssl_ca_certificate&#x27;: None, &#x27;scheduler&#x27;: None, &#x27;interfaces&#x27;: None, &#x27;ssl_private_key&#x27;: &#x27;&#x27;, &#x27;gae&#x27;: None, &#x27;password&#x27;: &#x27;******&#x27;, &#x27;request_queue_size&#x27;: 5, &#x27;ssl_certificate&#x27;: &#x27;&#x27;, &#x27;cronjob&#x27;: False, &#x27;numthreads&#x27;: None, &#x27;quiet&#x27;: False, &#x27;import_models&#x27;: False, &#x27;timeout&#x27;: 10, &#x27;plain&#x27;: False, &#x27;nobanner&#x27;: False}&gt;</div></td></tr><tr><td style="font-weight:bold;vertical-align:top;">db_sessions</td><td style="vertical-align:top;">:</td><td><div>set([])</div></td></tr><tr><td style="font-weight:bold;vertical-align:top;">debugging</td><td style="vertical-align:top;">:</td><td><div>True</div></td></tr><tr><td style="font-weight:bold;vertical-align:top;">gluon_parent</td><td style="vertical-align:top;">:</td><td><div>/home/aubreymoore/Devel/playpen/web2py</div></td></tr><tr><td style="font-weight:bold;vertical-align:top;">is_jython</td><td style="vertical-align:top;">:</td><td><div>False</div></td></tr><tr><td style="font-weight:bold;vertical-align:top;">is_pypy</td><td style="vertical-align:top;">:</td><td><div>False</div></td></tr><tr><td style="font-weight:bold;vertical-align:top;">is_source</td><td style="vertical-align:top;">:</td><td><div>True</div></td></tr><tr><td style="font-weight:bold;vertical-align:top;">local_hosts</td><td style="vertical-align:top;">:</td><td><div><table><tr><td><div>::1</div></td></tr><tr><td><div>127.0.1.1</div></td></tr><tr><td><div>::ffff:127.0.0.1</div></td></tr><tr><td><div>127.0.0.1</div></td></tr><tr><td><div>aubreymoore-Aspire-7750Z</div></td></tr></table></div></td></tr><tr><td style="font-weight:bold;vertical-align:top;">web2py_version</td><td style="vertical-align:top;">:</td><td><div>2.14.6-stable+timestamp.2016.05.10.00.21.47</div></td></tr></table></div></td></tr><tr><td style="font-weight:bold;vertical-align:top;">is_https</td><td style="vertical-align:top;">:</td><td><div>False</div></td></tr><tr><td style="font-weight:bold;vertical-align:top;">is_local</td><td style="vertical-align:top;">:</td><td><div>True</div></td></tr><tr><td style="font-weight:bold;vertical-align:top;">is_restful</td><td style="vertical-align:top;">:</td><td><div>False</div></td></tr><tr><td style="font-weight:bold;vertical-align:top;">is_scheduler</td><td style="vertical-align:top;">:</td><td><div>False</div></td></tr><tr><td style="font-weight:bold;vertical-align:top;">is_shell</td><td style="vertical-align:top;">:</td><td><div>False</div></td></tr><tr><td style="font-weight:bold;vertical-align:top;">now</td><td style="vertical-align:top;">:</td><td><div>datetime.datetime(2017, 2, 23, 21, 37, 29, 880998)</div></td></tr><tr><td style="font-weight:bold;vertical-align:top;">raw_args</td><td style="vertical-align:top;">:</td><td><div></div></td></tr><tr><td style="font-weight:bold;vertical-align:top;">raw_extension</td><td style="vertical-align:top;">:</td><td><div>None</div></td></tr><tr><td style="font-weight:bold;vertical-align:top;">url</td><td style="vertical-align:top;">:</td><td><div>/pestlist/default/parse_resolved_names</div></td></tr><tr><td style="font-weight:bold;vertical-align:top;">utcnow</td><td style="vertical-align:top;">:</td><td><div>datetime.datetime(2017, 2, 23, 11, 37, 29, 881061)</div></td></tr><tr><td style="font-weight:bold;vertical-align:top;">wsgi</td><td style="vertical-align:top;">:</td><td><div>&lt;gluon.main.LazyWSGI object at 0x7f1eca0103d0&gt;</div></td></tr></table></div>'
tRp57
sS'frames'
p58
(lp59
(dp60
S'file'
p61
S'/home/aubreymoore/Devel/playpen/web2py/gluon/restricted.py'
p62
sS'dump'
p63
(dp64
S'environment'
p65
S"{'A': <class 'gluon.html.A'>, 'ANY_OF': <class 'gluon.validators.ANY_OF'>, 'ASSIGNJS': <function ASSIGNJS>, 'AppConfig': <function AppConfig>, 'Auth': <class 'gluon.tools.Auth'>, 'B': <class 'gluon.html.B'>, 'BEAUTIFY': <class 'gluon.html.BEAUTIFY'>, 'BODY': <class 'gluon.html.BODY'>, 'BR': <class 'gluon.html.BR'>, 'BUTTON': <class 'gluon.html.BUTTON'>, ...}"
p66
sS'ccode'
p67
S'<code object <module> at 0x7f1ee8058d30, file "/...ations/pestlist/controllers/default.py", line 11>'
p68
ssS'lnum'
p69
I227
sS'lines'
p70
(dp71
I224
S'            ccode = code'
p72
sI225
S'        else:'
p73
sI226
S'            ccode = compile2(code, layer)'
p74
sI227
S'        exec ccode in environment'
p75
sI228
S'    except HTTP:'
p76
sI229
S'        raise'
p77
sI230
S'    except RestrictedError:'
p78
sI231
S'        # do not encapsulate (obfuscate) the original RestrictedError'
p79
sI222
S'    try:'
p80
sI223
S'        if isinstance(code, types.CodeType):'
p81
ssS'call'
p82
S"(code='# -*- coding: utf-8 -*-\\n# this file is released ...nse._vars=response._caller(parse_resolved_names)\\n', environment={'A': <class 'gluon.html.A'>, 'ANY_OF': <class 'gluon.validators.ANY_OF'>, 'ASSIGNJS': <function ASSIGNJS>, 'AppConfig': <function AppConfig>, 'Auth': <class 'gluon.tools.Auth'>, 'B': <class 'gluon.html.B'>, 'BEAUTIFY': <class 'gluon.html.BEAUTIFY'>, 'BODY': <class 'gluon.html.BODY'>, 'BR': <class 'gluon.html.BR'>, 'BUTTON': <class 'gluon.html.BUTTON'>, ...}, layer='/home/aubreymoore/Devel/playpen/web2py/applications/pestlist/controllers/default.py')"
p83
sS'func'
p84
S'restricted'
p85
sa(dp86
g61
S'/home/aubreymoore/Devel/playpen/web2py/applications/pestlist/controllers/default.py'
p87
sg63
(dp88
sg69
I138
sg70
(dp89
I128
S''
sI129
S'def call():'
p90
sI130
S'    """'
p91
sI131
S'    exposes services. for example:'
p92
sI132
S'    http://..../[app]/default/call/jsonrpc'
p93
sI133
S'    decorate with @services.jsonrpc the functions to expose'
p94
sI134
S'    supports xml, json, xmlrpc, jsonrpc, amfrpc, rss, csv'
p95
sI135
S'    """'
p96
sI136
S'    return service()'
p97
sI127
S''
ssg82
S'()'
p98
sg84
S'<module>'
p99
sa(dp100
g61
S'/home/aubreymoore/Devel/playpen/web2py/gluon/globals.py'
p101
sg63
(dp102
S'self'
p103
S'undefined'
p104
sS'f'
S'<function parse_resolved_names>'
p105
ssg69
I417
sg70
(dp106
I416
S'        self._vars = None'
p107
sI417
S'        self._caller = lambda f: f()'
p108
sI418
S'        self._view_environment = None'
p109
sI419
S'        self._custom_commit = None'
p110
sI420
S'        self._custom_rollback = None'
p111
sI421
S"        self.generic_patterns = ['*']"
p112
sI412
S"        self.flash = ''            # used by the default view layout"
p113
sI413
S'        self.meta = Storage()      # used by web2py_ajax.html'
p114
sI414
S'        self.menu = []             # used by the default view layout'
p115
sI415
S'        self.files = []            # used by web2py_ajax.html'
p116
ssg82
S'(f=<function parse_resolved_names>)'
p117
sg84
S'<lambda>'
p118
sa(dp119
g61
S'/home/aubreymoore/Devel/playpen/web2py/applications/pestlist/controllers/default.py'
p120
sg63
(dp121
S'classification_path'
p122
S"[u'Plantae', u'Tracheophyta', u'Liliopsida', u'Asparagales', u'Asparagaceae', u'Agave', u'Agave sisalana']"
p123
ssg69
I32
sg70
(dp124
I32
S"            assert classification_path[0] == 'kingdom'"
p125
sI33
S'            assert len(classification_path) == len(classification_path_ids)'
p126
sI34
S'            assert len(classification_path_ids) == len(classification_path_ranks)'
p127
sI35
S''
sI36
S'            for i in range(len(classification_path)):'
p128
sI27
S'            result_dict = results_list[0]'
p129
sI28
S"            classification_path = result_dict['classification_path'].split('|')"
p130
sI29
S"            classification_path_ids = result_dict['classification_path_ids'].split('|')"
p131
sI30
S"            classification_path_ranks = result_dict['classification_path_ranks'].split('|')"
p132
sI31
S''
ssg82
S'()'
p133
sg84
S'parse_resolved_names'
p134
sasS'pyver'
p135
S'Python 2.7.13: /home/aubreymoore/anaconda3/envs/playpen/bin/python (prefix: /home/aubreymoore/anaconda3/envs/playpen)'
p136
sS'session'
p137
g56
(S's\x1a\x00\x00\x00<div><table></table></div>'
tRp138
sS'etype'
p139
S"<type 'exceptions.AssertionError'>"
p140
sS'date'
p141
S'Thu Feb 23 21:37:30 2017'
p142
sS'response'
p143
g56
(S'sp>\x00\x00<div><table><tr><td style="font-weight:bold;vertical-align:top;">body</td><td style="vertical-align:top;">:</td><td><div>&lt;cStringIO.StringO object at 0x7f1ec9c6e880&gt;</div></td></tr><tr><td style="font-weight:bold;vertical-align:top;">cookies</td><td style="vertical-align:top;">:</td><td><div><table><tr><td style="font-weight:bold;vertical-align:top;">session_id_pestlist</td><td style="vertical-align:top;">:</td><td><div>127.0.0.1-9950f4c4-b772-4713-850b-9b99a8b8ad8a<table><tr><td style="font-weight:bold;vertical-align:top;">comment</td><td style="vertical-align:top;">:</td><td><div></div></td></tr><tr><td style="font-weight:bold;vertical-align:top;">domain</td><td style="vertical-align:top;">:</td><td><div></div></td></tr><tr><td style="font-weight:bold;vertical-align:top;">expires</td><td style="vertical-align:top;">:</td><td><div></div></td></tr><tr><td style="font-weight:bold;vertical-align:top;">httponly</td><td style="vertical-align:top;">:</td><td><div></div></td></tr><tr><td style="font-weight:bold;vertical-align:top;">max-age</td><td style="vertical-align:top;">:</td><td><div></div></td></tr><tr><td style="font-weight:bold;vertical-align:top;">path</td><td style="vertical-align:top;">:</td><td><div>/</div></td></tr><tr><td style="font-weight:bold;vertical-align:top;">secure</td><td style="vertical-align:top;">:</td><td><div></div></td></tr><tr><td style="font-weight:bold;vertical-align:top;">version</td><td style="vertical-align:top;">:</td><td><div></div></td></tr></table></div></td></tr></table></div></td></tr><tr><td style="font-weight:bold;vertical-align:top;">delimiters</td><td style="vertical-align:top;">:</td><td><div><table><tr><td><div>{{</div></td></tr><tr><td><div>}}</div></td></tr></table></div></td></tr><tr><td style="font-weight:bold;vertical-align:top;">files</td><td style="vertical-align:top;">:</td><td><div><table></table></div></td></tr><tr><td style="font-weight:bold;vertical-align:top;">flash</td><td style="vertical-align:top;">:</td><td><div></div></td></tr><tr><td style="font-weight:bold;vertical-align:top;">form_label_separator</td><td style="vertical-align:top;">:</td><td><div></div></td></tr><tr><td style="font-weight:bold;vertical-align:top;">formstyle</td><td style="vertical-align:top;">:</td><td><div>bootstrap3_inline</div></td></tr><tr><td style="font-weight:bold;vertical-align:top;">generic_patterns</td><td style="vertical-align:top;">:</td><td><div><table><tr><td><div>*</div></td></tr></table></div></td></tr><tr><td style="font-weight:bold;vertical-align:top;">google_analytics_id</td><td style="vertical-align:top;">:</td><td><div>None</div></td></tr><tr><td style="font-weight:bold;vertical-align:top;">headers</td><td style="vertical-align:top;">:</td><td><div><table><tr><td style="font-weight:bold;vertical-align:top;">X-Powered-By</td><td style="vertical-align:top;">:</td><td><div>web2py</div></td></tr></table></div></td></tr><tr><td style="font-weight:bold;vertical-align:top;">logo</td><td style="vertical-align:top;">:</td><td><div><a class="navbar-brand" href="http://www.web2py.com/" id="web2py-logo"><b>web<span>2</span>py</b>&trade;&nbsp;</a></div></td></tr><tr><td style="font-weight:bold;vertical-align:top;">menu</td><td style="vertical-align:top;">:</td><td><div><table><tr><td><div><table><tr><td><div>Home</div></td></tr><tr><td><div>False</div></td></tr><tr><td><div>/pestlist/default/index</div></td></tr><tr><td><div><table></table></div></td></tr></table></div></td></tr><tr><td><div><table><tr><td><div>My Sites</div></td></tr><tr><td><div>False</div></td></tr><tr><td><div>/admin/default/site</div></td></tr></table></div></td></tr><tr><td><div><table><tr><td><div>This App</div></td></tr><tr><td><div>False</div></td></tr><tr><td><div>#</div></td></tr><tr><td><div><table><tr><td><div><table><tr><td><div>Design</div></td></tr><tr><td><div>False</div></td></tr><tr><td><div>/admin/default/design/pestlist</div></td></tr></table></div></td></tr><tr><td><div><li class="divider"></li></div></td></tr><tr><td><div><table><tr><td><div>Controller</div></td></tr><tr><td><div>False</div></td></tr><tr><td><div>/admin/default/edit/pestlist/controllers/default.py</div></td></tr></table></div></td></tr><tr><td><div><table><tr><td><div>View</div></td></tr><tr><td><div>False</div></td></tr><tr><td><div>/admin/default/edit/pestlist/views/default/parse_resolved_names.html</div></td></tr></table></div></td></tr><tr><td><div><table><tr><td><div>DB Model</div></td></tr><tr><td><div>False</div></td></tr><tr><td><div>/admin/default/edit/pestlist/models/db.py</div></td></tr></table></div></td></tr><tr><td><div><table><tr><td><div>Menu Model</div></td></tr><tr><td><div>False</div></td></tr><tr><td><div>/admin/default/edit/pestlist/models/menu.py</div></td></tr></table></div></td></tr><tr><td><div><table><tr><td><div>Config.ini</div></td></tr><tr><td><div>False</div></td></tr><tr><td><div>/admin/default/edit/pestlist/private/appconfig.ini</div></td></tr></table></div></td></tr><tr><td><div><table><tr><td><div>Layout</div></td></tr><tr><td><div>False</div></td></tr><tr><td><div>/admin/default/edit/pestlist/views/layout.html</div></td></tr></table></div></td></tr><tr><td><div><table><tr><td><div>Stylesheet</div></td></tr><tr><td><div>False</div></td></tr><tr><td><div>/admin/default/edit/pestlist/static/css/web2py-bootstrap3.css</div></td></tr></table></div></td></tr><tr><td><div><table><tr><td><div>Database</div></td></tr><tr><td><div>False</div></td></tr><tr><td><div>/pestlist/appadmin/index</div></td></tr></table></div></td></tr><tr><td><div><table><tr><td><div>Errors</div></td></tr><tr><td><div>False</div></td></tr><tr><td><div>/admin/default/errors/pestlist</div></td></tr></table></div></td></tr><tr><td><div><table><tr><td><div>About</div></td></tr><tr><td><div>False</div></td></tr><tr><td><div>/admin/default/about/pestlist</div></td></tr></table></div></td></tr></table></div></td></tr></table></div></td></tr><tr><td><div><table><tr><td><div>web2py.com</div></td></tr><tr><td><div>False</div></td></tr><tr><td><div>#</div></td></tr><tr><td><div><table><tr><td><div><table><tr><td><div>Download</div></td></tr><tr><td><div>False</div></td></tr><tr><td><div>http://www.web2py.com/examples/default/download</div></td></tr></table></div></td></tr><tr><td><div><table><tr><td><div>Support</div></td></tr><tr><td><div>False</div></td></tr><tr><td><div>http://www.web2py.com/examples/default/support</div></td></tr></table></div></td></tr><tr><td><div><table><tr><td><div>Demo</div></td></tr><tr><td><div>False</div></td></tr><tr><td><div>http://web2py.com/demo_admin</div></td></tr></table></div></td></tr><tr><td><div><table><tr><td><div>Quick Examples</div></td></tr><tr><td><div>False</div></td></tr><tr><td><div>http://web2py.com/examples/default/examples</div></td></tr></table></div></td></tr><tr><td><div><table><tr><td><div>FAQ</div></td></tr><tr><td><div>False</div></td></tr><tr><td><div>http://web2py.com/AlterEgo</div></td></tr></table></div></td></tr><tr><td><div><table><tr><td><div>Videos</div></td></tr><tr><td><div>False</div></td></tr><tr><td><div>http://www.web2py.com/examples/default/videos/</div></td></tr></table></div></td></tr><tr><td><div><table><tr><td><div>Free Applications</div></td></tr><tr><td><div>False</div></td></tr><tr><td><div>http://web2py.com/appliances</div></td></tr></table></div></td></tr><tr><td><div><table><tr><td><div>Plugins</div></td></tr><tr><td><div>False</div></td></tr><tr><td><div>http://web2py.com/plugins</div></td></tr></table></div></td></tr><tr><td><div><table><tr><td><div>Recipes</div></td></tr><tr><td><div>False</div></td></tr><tr><td><div>http://web2pyslices.com/</div></td></tr></table></div></td></tr></table></div></td></tr></table></div></td></tr><tr><td><div><table><tr><td><div>Documentation</div></td></tr><tr><td><div>False</div></td></tr><tr><td><div>#</div></td></tr><tr><td><div><table><tr><td><div><table><tr><td><div>Online book</div></td></tr><tr><td><div>False</div></td></tr><tr><td><div>http://www.web2py.com/book</div></td></tr></table></div></td></tr><tr><td><div><li class="divider"></li></div></td></tr><tr><td><div><table><tr><td><div>Preface</div></td></tr><tr><td><div>False</div></td></tr><tr><td><div>http://www.web2py.com/book/default/chapter/00</div></td></tr></table></div></td></tr><tr><td><div><table><tr><td><div>Introduction</div></td></tr><tr><td><div>False</div></td></tr><tr><td><div>http://www.web2py.com/book/default/chapter/01</div></td></tr></table></div></td></tr><tr><td><div><table><tr><td><div>Python</div></td></tr><tr><td><div>False</div></td></tr><tr><td><div>http://www.web2py.com/book/default/chapter/02</div></td></tr></table></div></td></tr><tr><td><div><table><tr><td><div>Overview</div></td></tr><tr><td><div>False</div></td></tr><tr><td><div>http://www.web2py.com/book/default/chapter/03</div></td></tr></table></div></td></tr><tr><td><div><table><tr><td><div>The Core</div></td></tr><tr><td><div>False</div></td></tr><tr><td><div>http://www.web2py.com/book/default/chapter/04</div></td></tr></table></div></td></tr><tr><td><div><table><tr><td><div>The Views</div></td></tr><tr><td><div>False</div></td></tr><tr><td><div>http://www.web2py.com/book/default/chapter/05</div></td></tr></table></div></td></tr><tr><td><div><table><tr><td><div>Database</div></td></tr><tr><td><div>False</div></td></tr><tr><td><div>http://www.web2py.com/book/default/chapter/06</div></td></tr></table></div></td></tr><tr><td><div><table><tr><td><div>Forms and Validators</div></td></tr><tr><td><div>False</div></td></tr><tr><td><div>http://www.web2py.com/book/default/chapter/07</div></td></tr></table></div></td></tr><tr><td><div><table><tr><td><div>Email and SMS</div></td></tr><tr><td><div>False</div></td></tr><tr><td><div>http://www.web2py.com/book/default/chapter/08</div></td></tr></table></div></td></tr><tr><td><div><table><tr><td><div>Access Control</div></td></tr><tr><td><div>False</div></td></tr><tr><td><div>http://www.web2py.com/book/default/chapter/09</div></td></tr></table></div></td></tr><tr><td><div><table><tr><td><div>Services</div></td></tr><tr><td><div>False</div></td></tr><tr><td><div>http://www.web2py.com/book/default/chapter/10</div></td></tr></table></div></td></tr><tr><td><div><table><tr><td><div>Ajax Recipes</div></td></tr><tr><td><div>False</div></td></tr><tr><td><div>http://www.web2py.com/book/default/chapter/11</div></td></tr></table></div></td></tr><tr><td><div><table><tr><td><div>Components and Plugins</div></td></tr><tr><td><div>False</div></td></tr><tr><td><div>http://www.web2py.com/book/default/chapter/12</div></td></tr></table></div></td></tr><tr><td><div><table><tr><td><div>Deployment Recipes</div></td></tr><tr><td><div>False</div></td></tr><tr><td><div>http://www.web2py.com/book/default/chapter/13</div></td></tr></table></div></td></tr><tr><td><div><table><tr><td><div>Other Recipes</div></td></tr><tr><td><div>False</div></td></tr><tr><td><div>http://www.web2py.com/book/default/chapter/14</div></td></tr></table></div></td></tr><tr><td><div><table><tr><td><div>Helping web2py</div></td></tr><tr><td><div>False</div></td></tr><tr><td><div>http://www.web2py.com/book/default/chapter/15</div></td></tr></table></div></td></tr><tr><td><div><table><tr><td><div>Buy web2py\'s book</div></td></tr><tr><td><div>False</div></td></tr><tr><td><div>http://stores.lulu.com/web2py</div></td></tr></table></div></td></tr></table></div></td></tr></table></div></td></tr><tr><td><div><table><tr><td><div>Community</div></td></tr><tr><td><div>False</div></td></tr><tr><td><div>None</div></td></tr><tr><td><div><table><tr><td><div><table><tr><td><div>Groups</div></td></tr><tr><td><div>False</div></td></tr><tr><td><div>http://www.web2py.com/examples/default/usergroups</div></td></tr></table></div></td></tr><tr><td><div><table><tr><td><div>Twitter</div></td></tr><tr><td><div>False</div></td></tr><tr><td><div>http://twitter.com/web2py</div></td></tr></table></div></td></tr><tr><td><div><table><tr><td><div>Live Chat</div></td></tr><tr><td><div>False</div></td></tr><tr><td><div>http://webchat.freenode.net/?channels=web2py</div></td></tr></table></div></td></tr></table></div></td></tr></table></div></td></tr></table></div></td></tr><tr><td style="font-weight:bold;vertical-align:top;">meta</td><td style="vertical-align:top;">:</td><td><div><table><tr><td style="font-weight:bold;vertical-align:top;">author</td><td style="vertical-align:top;">:</td><td><div>Your Name &lt;you@example.com&gt;</div></td></tr><tr><td style="font-weight:bold;vertical-align:top;">description</td><td style="vertical-align:top;">:</td><td><div>a cool new app</div></td></tr><tr><td style="font-weight:bold;vertical-align:top;">generator</td><td style="vertical-align:top;">:</td><td><div>Web2py Web Framework</div></td></tr><tr><td style="font-weight:bold;vertical-align:top;">keywords</td><td style="vertical-align:top;">:</td><td><div><table><tr><td><div>web2py</div></td></tr><tr><td><div>python</div></td></tr><tr><td><div>framework</div></td></tr></table></div></td></tr></table></div></td></tr><tr><td style="font-weight:bold;vertical-align:top;">models_to_run</td><td style="vertical-align:top;">:</td><td><div><table><tr><td><div>^\\w+\\.py$</div></td></tr><tr><td><div>^default/\\w+\\.py$</div></td></tr><tr><td><div>^default/parse_resolved_names/\\w+\\.py$</div></td></tr></table></div></td></tr><tr><td style="font-weight:bold;vertical-align:top;">postprocessing</td><td style="vertical-align:top;">:</td><td><div><table></table></div></td></tr><tr><td style="font-weight:bold;vertical-align:top;">session_client</td><td style="vertical-align:top;">:</td><td><div>127.0.0.1</div></td></tr><tr><td style="font-weight:bold;vertical-align:top;">session_cookie_compression_level</td><td style="vertical-align:top;">:</td><td><div>None</div></td></tr><tr><td style="font-weight:bold;vertical-align:top;">session_cookie_expires</td><td style="vertical-align:top;">:</td><td><div>None</div></td></tr><tr><td style="font-weight:bold;vertical-align:top;">session_data_name</td><td style="vertical-align:top;">:</td><td><div>session_data_pestlist</div></td></tr><tr><td style="font-weight:bold;vertical-align:top;">session_file</td><td style="vertical-align:top;">:</td><td><div>None</div></td></tr><tr><td style="font-weight:bold;vertical-align:top;">session_filename</td><td style="vertical-align:top;">:</td><td><div>/home/aubreymoore/Devel/playpen/web2py/applications/pestlist/sessions/127.0.0.1-9950f4c4-b772-4713-850b-9b99a8b8ad8a</div></td></tr><tr><td style="font-weight:bold;vertical-align:top;">session_hash</td><td style="vertical-align:top;">:</td><td><div>c0762cbf4baf7f9af97c051e7fcb8083</div></td></tr><tr><td style="font-weight:bold;vertical-align:top;">session_id</td><td style="vertical-align:top;">:</td><td><div>127.0.0.1-9950f4c4-b772-4713-850b-9b99a8b8ad8a</div></td></tr><tr><td style="font-weight:bold;vertical-align:top;">session_id_name</td><td style="vertical-align:top;">:</td><td><div>session_id_pestlist</div></td></tr><tr><td style="font-weight:bold;vertical-align:top;">session_masterapp</td><td style="vertical-align:top;">:</td><td><div>pestlist</div></td></tr><tr><td style="font-weight:bold;vertical-align:top;">session_new</td><td style="vertical-align:top;">:</td><td><div>True</div></td></tr><tr><td style="font-weight:bold;vertical-align:top;">session_storage_type</td><td style="vertical-align:top;">:</td><td><div>file</div></td></tr><tr><td style="font-weight:bold;vertical-align:top;">status</td><td style="vertical-align:top;">:</td><td><div>200</div></td></tr><tr><td style="font-weight:bold;vertical-align:top;">subtitle</td><td style="vertical-align:top;">:</td><td><div></div></td></tr><tr><td style="font-weight:bold;vertical-align:top;">title</td><td style="vertical-align:top;">:</td><td><div>Pestlist</div></td></tr><tr><td style="font-weight:bold;vertical-align:top;">view</td><td style="vertical-align:top;">:</td><td><div>default/parse_resolved_names.html</div></td></tr></table></div>'
tRp144
sS'locals'
p145
(dp146
S'classification_path'
p147
S"[u'Plantae', u'Tracheophyta', u'Liliopsida', u'Asparagales', u'Asparagaceae', u'Agave', u'Agave sisalana']"
p148
sS'rows'
p149
S'<Rows (0)>'
p150
sS'results_list'
p151
S"[{u'canonical_form': u'Agave sisalana', u'classification_path': u'Plantae|Tracheophyta|Liliopsida|Asparagales|Asparagaceae|Agave|Agave sisalana', u'classification_path_ids': u'6|7707728|196|1169|7683|2766430|2766636', u'classification_path_ranks': u'kingdom|phylum|class|order|family|genus|species', u'data_source_id': 11, u'data_source_title': u'GBIF Backbone Taxonomy', u'edit_distance': 0, u'gni_uuid': u'b2a8b282-f846-557e-8f96-aaa26d068cb5', u'imported_at': u'2016-11-13T19:37:29Z', u'match_type': 2, ...}, {u'canonical_form': u'Agave sisalana', u'classification_path': u'Plantae|Tracheophyta|Liliopsida|Asparagales|Asparagaceae|Agave|Agave sisalana', u'classification_path_ids': u'6|7707728|196|1169|7683|2766430|8123118', u'classification_path_ranks': u'kingdom|phylum|class|order|family|genus|species', u'data_source_id': 11, u'data_source_title': u'GBIF Backbone Taxonomy', u'edit_distance': 0, u'gni_uuid': u'c2deb93a-de0e-58cf-bfeb-6fd196652038', u'imported_at': u'2016-11-13T19:37:47Z', u'match_type': 2, ...}]"
p152
sS'resolved_names_list'
p153
S"[{u'is_known_name': True, u'results': [{u'canonical_form': u'Agave sisalana', u'classification_path': u'Plantae|Tracheophyta|Liliopsida|Asparagales|Asparagaceae|Agave|Agave sisalana', u'classification_path_ids': u'6|7707728|196|1169|7683|2766430|2766636', u'classification_path_ranks': u'kingdom|phylum|class|order|family|genus|species', u'data_source_id': 11, u'data_source_title': u'GBIF Backbone Taxonomy', u'edit_distance': 0, u'gni_uuid': u'b2a8b282-f846-557e-8f96-aaa26d068cb5', u'imported_at': u'2016-11-13T19:37:29Z', u'match_type': 2, ...}, {u'canonical_form': u'Agave sisalana', u'classification_path': u'Plantae|Tracheophyta|Liliopsida|Asparagales|Asparagaceae|Agave|Agave sisalana', u'classification_path_ids': u'6|7707728|196|1169|7683|2766430|8123118', u'classification_path_ranks': u'kingdom|phylum|class|order|family|genus|species', u'data_source_id': 11, u'data_source_title': u'GBIF Backbone Taxonomy', u'edit_distance': 0, u'gni_uuid': u'c2deb93a-de0e-58cf-bfeb-6fd196652038', u'imported_at': u'2016-11-13T19:37:47Z', u'match_type': 2, ...}], u'supplied_name_string': u'Agave sisalana'}, {u'is_known_name': False, u'supplied_name_string': u'Avocado'}, {u'is_known_name': True, u'results': [{u'canonical_form': u'Persea americana', u'classification_path': u'Plantae|Tracheophyta|Magnoliopsida|Laurales|Lauraceae|Persea|Persea americana', u'classification_path_ids': u'6|7707728|220|407|6688|3034041|3034046', u'classification_path_ranks': u'kingdom|phylum|class|order|family|genus|species', u'data_source_id': 11, u'data_source_title': u'GBIF Backbone Taxonomy', u'edit_distance': 0, u'gni_uuid': u'e9a1bdf0-5723-5e79-af71-d0624abe84bf', u'imported_at': u'2016-11-13T20:45:44Z', u'match_type': 2, ...}], u'supplied_name_string': u'Persea americana'}, {u'is_known_name': True, u'results': [{u'canonical_form': u'Bambusa', u'classification_path': u'Plantae|Tracheophyta|Liliopsida|Poales|Poaceae|Bambusa', u'classification_path_ids': u'6|7707728|196|1369|3073|2705751', u'classification_path_ranks': u'kingdom|phylum|class|order|family|genus', u'data_source_id': 11, u'data_source_title': u'GBIF Backbone Taxonomy', u'edit_distance': 0, u'gni_uuid': u'a925e219-ed86-5bc4-9da8-1c87a47fe6ee', u'imported_at': u'2016-11-13T19:33:26Z', u'match_type': 2, ...}, {u'canonical_form': u'Bambusa', u'classification_path': u'Plantae|Tracheophyta|Liliopsida|Poales|Poaceae|Bambusa', u'classification_path_ids': u'6|7707728|196|1369|3073|7967307', u'classification_path_ranks': u'kingdom|phylum|class|order|family|genus', u'data_source_id': 11, u'data_source_title': u'GBIF Backbone Taxonomy', u'edit_distance': 0, u'gni_uuid': u'5ed044e4-0046-594e-ac8c-00c89290eda5', u'imported_at': u'2016-11-13T19:33:45Z', u'match_type': 2, ...}], u'supplied_name_string': u'Bambusa'}, {u'is_known_name': True, u'results': [{u'canonical_form': u'Phaseolus', u'classification_path': u'Plantae|Tracheophyta|Magnoliopsida|Fabales|Fabaceae|Phaseolus', u'classification_path_ids': u'6|7707728|220|1370|5386|2947798', u'classification_path_ranks': u'kingdom|phylum|class|order|family|genus', u'data_source_id': 11, u'data_source_title': u'GBIF Backbone Taxonomy', u'edit_distance': 0, u'gni_uuid': u'2ce3b469-d181-522d-ab58-ed179758355e', u'imported_at': u'2016-11-13T21:03:10Z', u'match_type': 2, ...}, {u'canonical_form': u'Phaseolus', u'classification_path': u'Animalia|Mollusca|Bivalvia|Nuculanoida|Phaseolidae|Phaseolus', u'classification_path_ids': u'1|52|137|8105257|4587869|2285633', u'classification_path_ranks': u'kingdom|phylum|class|order|family|genus', u'data_source_id': 11, u'data_source_title': u'GBIF Backbone Taxonomy', u'edit_distance': 0, u'gni_uuid': u'ab46891a-e21b-566f-80c2-5acd9636bc54', u'imported_at': u'2016-11-13T20:23:50Z', u'match_type': 2, ...}, {u'canonical_form': u'Phaseolus', u'classification_path': u'Animalia|Receptaculitidae|Phaseolus', u'classification_path_ids': u'1|3251834|3251836', u'classification_path_ranks': u'kingdom|family|genus', u'data_source_id': 11, u'data_source_title': u'GBIF Backbone Taxonomy', u'edit_distance': 0, u'gni_uuid': u'a1cd868c-e6d1-5281-8bf9-d520d3234bb0', u'imported_at': u'2016-11-13T22:35:03Z', u'match_type': 2, ...}], u'supplied_name_string': u'Phaseolus'}, {u'is_known_name': True, u'results': [{u'canonical_form': u'Cynodon', u'classification_path': u'Plantae|Tracheophyta|Liliopsida|Poales|Poaceae|Cynodon', u'classification_path_ids': u'6|7707728|196|1369|3073|2703525', u'classification_path_ranks': u'kingdom|phylum|class|order|family|genus', u'data_source_id': 11, u'data_source_title': u'GBIF Backbone Taxonomy', u'edit_distance': 0, u'gni_uuid': u'16c709c2-b3ab-5e05-8ecc-2b5045e65c56', u'imported_at': u'2016-11-13T19:33:29Z', u'match_type': 2, ...}, {u'canonical_form': u'Cynodon', u'classification_path': u'Animalia|Chordata|Mammalia|Carnivora|Ursidae|Amphicynodon', u'classification_path_ids': u'1|44|359|732|9681|3240118', u'classification_path_ranks': u'kingdom|phylum|class|order|family|genus', u'current_name_string': u'Amphicynodon Filhol, 1882', u'current_taxon_id': u'3240118', u'data_source_id': 11, u'data_source_title': u'GBIF Backbone Taxonomy', u'edit_distance': 0, u'gni_uuid': u'cae7aa87-4ef0-5b65-b278-df8c7d12e524', ...}, {u'canonical_form': u'Cynodon', u'classification_path': u'Plantae|Bryophyta|Bryopsida|Dicranales|Ditrichaceae|Cynodon', u'classification_path_ids': u'6|35|327|1335|8743|3230059', u'classification_path_ranks': u'kingdom|phylum|class|order|family|genus', u'data_source_id': 11, u'data_source_title': u'GBIF Backbone Taxonomy', u'edit_distance': 0, u'gni_uuid': u'b687b45d-8377-5797-b36c-f3a6acd267a9', u'imported_at': u'2016-11-13T20:08:08Z', u'match_type': 2, ...}, {u'canonical_form': u'Cynodon', u'classification_path': u'Animalia|Chordata|Cynodon', u'classification_path_ids': u'1|44|7237238', u'classification_path_ranks': u'kingdom|phylum|genus', u'data_source_id': 11, u'data_source_title': u'GBIF Backbone Taxonomy', u'edit_distance': 0, u'gni_uuid': u'67f171d7-373a-5727-b976-8f59022c9c54', u'imported_at': u'2016-11-13T22:32:24Z', u'match_type': 2, ...}, {u'canonical_form': u'Cynodon', u'classification_path': u'Animalia|Chordata|Actinopterygii|Characiformes|Cynodontidae|Cynodon', u'classification_path_ids': u'1|44|204|537|2978|2352261', u'classification_path_ranks': u'kingdom|phylum|class|order|family|genus', u'data_source_id': 11, u'data_source_title': u'GBIF Backbone Taxonomy', u'edit_distance': 0, u'gni_uuid': u'83582b99-67c7-50b5-98a5-6a02acddf078', u'imported_at': u'2016-11-13T19:49:50Z', u'match_type': 2, ...}], u'supplied_name_string': u'Cynodon'}, {u'is_known_name': True, u'results': [{u'canonical_form': u'Areca', u'classification_path': u'Plantae|Tracheophyta|Liliopsida|Arecales|Arecaceae|Areca', u'classification_path_ids': u'6|7707728|196|552|7681|2736518', u'classification_path_ranks': u'kingdom|phylum|class|order|family|genus', u'data_source_id': 11, u'data_source_title': u'GBIF Backbone Taxonomy', u'edit_distance': 0, u'gni_uuid': u'1b54e274-be21-5fbc-a4df-1feae31e8a6e', u'imported_at': u'2016-11-13T19:01:05Z', u'match_type': 2, ...}], u'supplied_name_string': u'Areca'}, {u'is_known_name': True, u'results': [{u'canonical_form': u'Artocarpus', u'classification_path': u'Plantae|Tracheophyta|Magnoliopsida|Rosales|Moraceae|Artocarpus', u'classification_path_ids': u'6|7707728|220|691|6640|2984563', u'classification_path_ranks': u'kingdom|phylum|class|order|family|genus', u'data_source_id': 11, u'data_source_title': u'GBIF Backbone Taxonomy', u'edit_distance': 0, u'gni_uuid': u'1eefda1f-04af-53be-8140-a7b4f0a12da9', u'imported_at': u'2016-11-13T21:26:25Z', u'match_type': 2, ...}], u'supplied_name_string': u'Artocarpus'}, {u'is_known_name': True, u'results': [{u'canonical_form': u'Brassica', u'classification_path': u'Plantae|Tracheophyta|Magnoliopsida|Brassicales|Brassicaceae|Brassica', u'classification_path_ids': u'6|7707728|220|7225535|3112|3042506', u'classification_path_ranks': u'kingdom|phylum|class|order|family|genus', u'data_source_id': 11, u'data_source_title': u'GBIF Backbone Taxonomy', u'edit_distance': 0, u'gni_uuid': u'd33eb444-d729-5b73-abc2-5c87550cd617', u'imported_at': u'2016-11-13T20:10:49Z', u'match_type': 2, ...}], u'supplied_name_string': u'Brassica'}, {u'is_known_name': True, u'results': [{u'canonical_form': u'Manihot esculenta', u'classification_path': u'Plantae|Tracheophyta|Magnoliopsida|Malpighiales|Euphorbiaceae|Manihot|Manihot esculenta', u'classification_path_ids': u'6|7707728|220|1414|4691|3060685|3060998', u'classification_path_ranks': u'kingdom|phylum|class|order|family|genus|species', u'data_source_id': 11, u'data_source_title': u'GBIF Backbone Taxonomy', u'edit_distance': 0, u'gni_uuid': u'aefc2890-bd60-5ca0-966c-e8a587b430bc', u'imported_at': u'2016-11-13T20:08:09Z', u'match_type': 2, ...}], u'supplied_name_string': u'Manihot esculenta'}, {u'is_known_name': True, u'results': [{u'canonical_form': u'Theobroma cacao', u'classification_path': u'Plantae|Tracheophyta|Magnoliopsida|Malvales|Malvaceae|Theobroma|Theobroma cacao', u'classification_path_ids': u'6|7707728|220|941|6685|2984934|3152205', u'classification_path_ranks': u'kingdom|phylum|class|order|family|genus|species', u'data_source_id': 11, u'data_source_title': u'GBIF Backbone Taxonomy', u'edit_distance': 0, u'gni_uuid': u'8baed9bd-9b5c-59f6-b582-fb828c523d07', u'imported_at': u'2016-11-13T21:13:24Z', u'match_type': 2, ...}, {u'canonical_form': u'Theobroma cacao', u'classification_path': u'Plantae|Tracheophyta|Magnoliopsida|Malvales|Malvaceae|Theobroma|Theobroma cacao|Theobroma cacao', u'classification_path_ids': u'6|7707728|220|941|6685|2984934|3152205|8447802', u'classification_path_ranks': u'kingdom|phylum|class|order|family|genus|species|form', u'data_source_id': 11, u'data_source_title': u'GBIF Backbone Taxonomy', u'edit_distance': 0, u'gni_uuid': u'3197c607-a47c-5b21-aa8c-9313944f8d12', u'imported_at': u'2016-11-13T21:13:24Z', u'match_type': 2, ...}], u'supplied_name_string': u'Theobroma cacao'}, {u'is_known_name': True, u'results': [{u'canonical_form': u'Cocos nucifera', u'classification_path': u'Plantae|Tracheophyta|Liliopsida|Arecales|Arecaceae|Cocos|Cocos nucifera', u'classification_path_ids': u'6|7707728|196|552|7681|2735116|2735117', u'classification_path_ranks': u'kingdom|phylum|class|order|family|genus|species', u'data_source_id': 11, u'data_source_title': u'GBIF Backbone Taxonomy', u'edit_distance': 0, u'gni_uuid': u'127addc3-adb6-570d-8858-fa2b58c97d27', u'imported_at': u'2016-11-13T21:43:28Z', u'match_type': 2, ...}], u'supplied_name_string': u'Cocos nucifera'}, {u'is_known_name': True, u'results': [{u'canonical_form': u'Coffea', u'classification_path': u'Plantae|Tracheophyta|Magnoliopsida|Gentianales|Rubiaceae|Coffea', u'classification_path_ids': u'6|7707728|220|412|8798|2895315', u'classification_path_ranks': u'kingdom|phylum|class|order|family|genus', u'data_source_id': 11, u'data_source_title': u'GBIF Backbone Taxonomy', u'edit_distance': 0, u'gni_uuid': u'c50975fd-6374-5028-a65c-5e21e2b19b53', u'imported_at': u'2016-11-13T22:34:45Z', u'match_type': 2, ...}], u'supplied_name_string': u'Coffea'}, {u'is_known_name': True, u'results': [{u'canonical_form': u'Gossypium', u'classification_path': u'Plantae|Tracheophyta|Magnoliopsida|Malvales|Malvaceae|Gossypium', u'classification_path_ids': u'6|7707728|220|941|6685|3152652', u'classification_path_ranks': u'kingdom|phylum|class|order|family|genus', u'data_source_id': 11, u'data_source_title': u'GBIF Backbone Taxonomy', u'edit_distance': 0, u'gni_uuid': u'6cfd5875-e46a-5a5c-8e76-529dfe577e0f', u'imported_at': u'2016-11-13T21:22:10Z', u'match_type': 2, ...}], u'supplied_name_string': u'Gossypium'}, {u'is_known_name': True, u'results': [{u'canonical_form': u'Codiaeum variegatum', u'classification_path': u'Plantae|Tracheophyta|Magnoliopsida|Malpighiales|Euphorbiaceae|Codiaeum|Codiaeum variegatum', u'classification_path_ids': u'6|7707728|220|1414|4691|3071464|3071476', u'classification_path_ranks': u'kingdom|phylum|class|order|family|genus|species', u'data_source_id': 11, u'data_source_title': u'GBIF Backbone Taxonomy', u'edit_distance': 0, u'gni_uuid': u'9a916565-dd32-5cd7-9cfb-3865a82bc3b8', u'imported_at': u'2016-11-13T20:12:48Z', u'match_type': 2, ...}, {u'canonical_form': u'Codiaeum variegatum', u'classification_path': u'Plantae|Tracheophyta|Magnoliopsida|Malpighiales|Euphorbiaceae|Codiaeum|Codiaeum variegatum', u'classification_path_ids': u'6|7707728|220|1414|4691|3071464|7754956', u'classification_path_ranks': u'kingdom|phylum|class|order|family|genus|species', u'data_source_id': 11, u'data_source_title': u'GBIF Backbone Taxonomy', u'edit_distance': 0, u'gni_uuid': u'ff5d9c21-4871-5707-b64c-d2a2e241cec9', u'imported_at': u'2016-11-13T22:58:25Z', u'match_type': 2, ...}, {u'canonical_form': u'Codiaeum variegatum', u'classification_path': u'Plantae|Tracheophyta|Magnoliopsida|Malpighiales|Euphorbiaceae|Codiaeum|Codiaeum variegatum', u'classification_path_ids': u'6|7707728|220|1414|4691|3071464|3071476', u'classification_path_ranks': u'kingdom|phylum|class|order|family|genus|species', u'current_name_string': u'Codiaeum variegatum (L.) Rumph. ex A.Juss.', u'current_taxon_id': u'3071476', u'data_source_id': 11, u'data_source_title': u'GBIF Backbone Taxonomy', u'edit_distance': 0, u'gni_uuid': u'7b7cc416-bb84-5aea-92f6-41bc45203ef4', ...}], u'supplied_name_string': u'Codiaeum variegatum'}, {u'is_known_name': True, u'results': [{u'canonical_form': u'Cucurbitaceae', u'classification_path': u'Plantae|Tracheophyta|Magnoliopsida|Cucurbitales|Cucurbitaceae', u'classification_path_ids': u'6|7707728|220|7224005|6634', u'classification_path_ranks': u'kingdom|phylum|class|order|family', u'data_source_id': 11, u'data_source_title': u'GBIF Backbone Taxonomy', u'edit_distance': 0, u'gni_uuid': u'52bd9805-cb5b-5147-861e-712aeccf9cdc', u'imported_at': u'2016-11-13T19:33:08Z', u'match_type': 1, ...}], u'supplied_name_string': u'Cucurbitaceae'}, {u'is_known_name': True, u'results': [{u'canonical_form': u'Cycas', u'classification_path': u'Plantae|Tracheophyta|Cycadopsida|Cycadales|Cycadaceae|Cycas', u'classification_path_ids': u'6|7707728|228|834|6168|2683206', u'classification_path_ranks': u'kingdom|phylum|class|order|family|genus', u'data_source_id': 11, u'data_source_title': u'GBIF Backbone Taxonomy', u'edit_distance': 0, u'gni_uuid': u'c3e2f49d-2401-5d23-b708-461accc9143c', u'imported_at': u'2016-11-13T20:56:46Z', u'match_type': 2, ...}], u'supplied_name_string': u'Cycas'}, {u'is_known_name': True, u'results': [{u'canonical_form': u'Solanum melongena', u'classification_path': u'Plantae|Tracheophyta|Magnoliopsida|Solanales|Solanaceae|Solanum|Solanum melongena', u'classification_path_ids': u'6|7707728|220|1176|7717|2928997|2930617', u'classification_path_ranks': u'kingdom|phylum|class|order|family|genus|species', u'data_source_id': 11, u'data_source_title': u'GBIF Backbone Taxonomy', u'edit_distance': 0, u'gni_uuid': u'252901ea-1e44-5ee9-bb22-5c97897278c5', u'imported_at': u'2016-11-13T22:39:49Z', u'match_type': 2, ...}, {u'canonical_form': u'Solanum melongena', u'classification_path': u'Plantae|Tracheophyta|Magnoliopsida|Solanales|Solanaceae|Solanum|Solanum melongena', u'classification_path_ids': u'6|7707728|220|1176|7717|2928997|8347557', u'classification_path_ranks': u'kingdom|phylum|class|order|family|genus|species', u'data_source_id': 11, u'data_source_title': u'GBIF Backbone Taxonomy', u'edit_distance': 0, u'gni_uuid': u'5b53bd98-5767-5fe5-9cf1-2dc20ced2972', u'imported_at': u'2016-11-13T23:00:48Z', u'match_type': 2, ...}], u'supplied_name_string': u'Solanum melongena'}, {u'is_known_name': True, u'results': [{u'canonical_form': u'Zingiber officinale', u'classification_path': u'Plantae|Tracheophyta|Liliopsida|Zingiberales|Zingiberaceae|Zingiber|Zingiber officinale', u'classification_path_ids': u'6|7707728|196|627|4687|2756693|2757280', u'classification_path_ranks': u'kingdom|phylum|class|order|family|genus|species', u'data_source_id': 11, u'data_source_title': u'GBIF Backbone Taxonomy', u'edit_distance': 0, u'gni_uuid': u'2e48214a-14f8-589d-b73f-14b0e6d849d7', u'imported_at': u'2016-11-13T20:24:09Z', u'match_type': 2, ...}], u'supplied_name_string': u'Zingiber officinale'}, {u'is_known_name': True, u'results': [{u'canonical_form': u'Psidium guajava', u'classification_path': u'Plantae|Tracheophyta|Magnoliopsida|Myrtales|Myrtaceae|Psidium|Psidium guajava', u'classification_path_ids': u'6|7707728|220|690|5014|3187232|5420380', u'classification_path_ranks': u'kingdom|phylum|class|order|family|genus|species', u'data_source_id': 11, u'data_source_title': u'GBIF Backbone Taxonomy', u'edit_distance': 0, u'gni_uuid': u'40b125ac-6959-545f-9354-4585a8f2df8e', u'imported_at': u'2016-11-13T19:32:10Z', u'match_type': 2, ...}], u'supplied_name_string': u'Psidium guajava'}, ...]"
p154
sS'classification_path_ranks'
p155
S"[u'kingdom', u'phylum', u'class', u'order', u'family', u'genus', u'species']"
p156
sS'classification_path_ids'
p157
S"[u'6', u'7707728', u'196', u'1169', u'7683', u'2766430', u'2766636']"
p158
sS'result_dict'
p159
S"{u'canonical_form': u'Agave sisalana', u'classification_path': u'Plantae|Tracheophyta|Liliopsida|Asparagales|Asparagaceae|Agave|Agave sisalana', u'classification_path_ids': u'6|7707728|196|1169|7683|2766430|2766636', u'classification_path_ranks': u'kingdom|phylum|class|order|family|genus|species', u'data_source_id': 11, u'data_source_title': u'GBIF Backbone Taxonomy', u'edit_distance': 0, u'gni_uuid': u'b2a8b282-f846-557e-8f96-aaa26d068cb5', u'imported_at': u'2016-11-13T19:37:29Z', u'match_type': 2, ...}"
p160
sS'resolved_name'
p161
S"{u'is_known_name': True, u'results': [{u'canonical_form': u'Agave sisalana', u'classification_path': u'Plantae|Tracheophyta|Liliopsida|Asparagales|Asparagaceae|Agave|Agave sisalana', u'classification_path_ids': u'6|7707728|196|1169|7683|2766430|2766636', u'classification_path_ranks': u'kingdom|phylum|class|order|family|genus|species', u'data_source_id': 11, u'data_source_title': u'GBIF Backbone Taxonomy', u'edit_distance': 0, u'gni_uuid': u'b2a8b282-f846-557e-8f96-aaa26d068cb5', u'imported_at': u'2016-11-13T19:37:29Z', u'match_type': 2, ...}, {u'canonical_form': u'Agave sisalana', u'classification_path': u'Plantae|Tracheophyta|Liliopsida|Asparagales|Asparagaceae|Agave|Agave sisalana', u'classification_path_ids': u'6|7707728|196|1169|7683|2766430|8123118', u'classification_path_ranks': u'kingdom|phylum|class|order|family|genus|species', u'data_source_id': 11, u'data_source_title': u'GBIF Backbone Taxonomy', u'edit_distance': 0, u'gni_uuid': u'c2deb93a-de0e-58cf-bfeb-6fd196652038', u'imported_at': u'2016-11-13T19:37:47Z', u'match_type': 2, ...}], u'supplied_name_string': u'Agave sisalana'}"
p162
sssS'traceback'
p163
S'Traceback (most recent call last):\n  File "/home/aubreymoore/Devel/playpen/web2py/gluon/restricted.py", line 227, in restricted\n    exec ccode in environment\n  File "/home/aubreymoore/Devel/playpen/web2py/applications/pestlist/controllers/default.py", line 138, in <module>\n  File "/home/aubreymoore/Devel/playpen/web2py/gluon/globals.py", line 417, in <lambda>\n    self._caller = lambda f: f()\n  File "/home/aubreymoore/Devel/playpen/web2py/applications/pestlist/controllers/default.py", line 32, in parse_resolved_names\n    assert classification_path[0] == \'kingdom\'\nAssertionError\n'
p164
s.